
examples/c_timecalls:     file format elf64-littleaarch64
examples/c_timecalls
architecture: aarch64, flags 0x00000150:
HAS_SYMS, DYNAMIC, D_PAGED
start address 0x0000000000000a30

Program Header:
    PHDR off    0x0000000000000040 vaddr 0x0000000000000040 paddr 0x0000000000000040 align 2**3
         filesz 0x00000000000001f8 memsz 0x00000000000001f8 flags r--
  INTERP off    0x0000000000000238 vaddr 0x0000000000000238 paddr 0x0000000000000238 align 2**0
         filesz 0x000000000000001b memsz 0x000000000000001b flags r--
    LOAD off    0x0000000000000000 vaddr 0x0000000000000000 paddr 0x0000000000000000 align 2**16
         filesz 0x00000000000014a4 memsz 0x00000000000014a4 flags r-x
    LOAD off    0x0000000000001da0 vaddr 0x0000000000011da0 paddr 0x0000000000011da0 align 2**16
         filesz 0x00000000000002f8 memsz 0x0000000000000320 flags rw-
 DYNAMIC off    0x0000000000001db0 vaddr 0x0000000000011db0 paddr 0x0000000000011db0 align 2**3
         filesz 0x00000000000001f0 memsz 0x00000000000001f0 flags rw-
    NOTE off    0x0000000000000254 vaddr 0x0000000000000254 paddr 0x0000000000000254 align 2**2
         filesz 0x0000000000000044 memsz 0x0000000000000044 flags r--
EH_FRAME off    0x00000000000012cc vaddr 0x00000000000012cc paddr 0x00000000000012cc align 2**2
         filesz 0x0000000000000064 memsz 0x0000000000000064 flags r--
   STACK off    0x0000000000000000 vaddr 0x0000000000000000 paddr 0x0000000000000000 align 2**4
         filesz 0x0000000000000000 memsz 0x0000000000000000 flags rw-
   RELRO off    0x0000000000001da0 vaddr 0x0000000000011da0 paddr 0x0000000000011da0 align 2**0
         filesz 0x0000000000000260 memsz 0x0000000000000260 flags r--

Dynamic Section:
  NEEDED               libseccomp.so.2
  NEEDED               libc.so.6
  INIT                 0x00000000000008e0
  FINI                 0x0000000000001124
  INIT_ARRAY           0x0000000000011da0
  INIT_ARRAYSZ         0x0000000000000008
  FINI_ARRAY           0x0000000000011da8
  FINI_ARRAYSZ         0x0000000000000008
  GNU_HASH             0x0000000000000298
  STRTAB               0x00000000000004e0
  SYMTAB               0x00000000000002b8
  STRSZ                0x0000000000000112
  SYMENT               0x0000000000000018
  DEBUG                0x0000000000000000
  PLTGOT               0x0000000000011fe8
  PLTRELSZ             0x0000000000000198
  PLTREL               0x0000000000000007
  JMPREL               0x0000000000000748
  RELA                 0x0000000000000640
  RELASZ               0x0000000000000108
  RELAENT              0x0000000000000018
  FLAGS_1              0x0000000008000000
  VERNEED              0x0000000000000620
  VERNEEDNUM           0x0000000000000001
  VERSYM               0x00000000000005f2
  RELACOUNT            0x0000000000000006

Version References:
  required from libc.so.6:
    0x06969197 0x00 02 GLIBC_2.17
private flags = 0:

Sections:
Idx Name          Size      VMA               LMA               File off  Algn
  0 .interp       0000001b  0000000000000238  0000000000000238  00000238  2**0
                  CONTENTS, ALLOC, LOAD, READONLY, DATA
  1 .note.gnu.build-id 00000024  0000000000000254  0000000000000254  00000254  2**2
                  CONTENTS, ALLOC, LOAD, READONLY, DATA
  2 .note.ABI-tag 00000020  0000000000000278  0000000000000278  00000278  2**2
                  CONTENTS, ALLOC, LOAD, READONLY, DATA
  3 .gnu.hash     0000001c  0000000000000298  0000000000000298  00000298  2**3
                  CONTENTS, ALLOC, LOAD, READONLY, DATA
  4 .dynsym       00000228  00000000000002b8  00000000000002b8  000002b8  2**3
                  CONTENTS, ALLOC, LOAD, READONLY, DATA
  5 .dynstr       00000112  00000000000004e0  00000000000004e0  000004e0  2**0
                  CONTENTS, ALLOC, LOAD, READONLY, DATA
  6 .gnu.version  0000002e  00000000000005f2  00000000000005f2  000005f2  2**1
                  CONTENTS, ALLOC, LOAD, READONLY, DATA
  7 .gnu.version_r 00000020  0000000000000620  0000000000000620  00000620  2**3
                  CONTENTS, ALLOC, LOAD, READONLY, DATA
  8 .rela.dyn     00000108  0000000000000640  0000000000000640  00000640  2**3
                  CONTENTS, ALLOC, LOAD, READONLY, DATA
  9 .rela.plt     00000198  0000000000000748  0000000000000748  00000748  2**3
                  CONTENTS, ALLOC, LOAD, READONLY, DATA
 10 .init         00000014  00000000000008e0  00000000000008e0  000008e0  2**2
                  CONTENTS, ALLOC, LOAD, READONLY, CODE
 11 .plt          00000130  0000000000000900  0000000000000900  00000900  2**4
                  CONTENTS, ALLOC, LOAD, READONLY, CODE
 12 .text         000006f4  0000000000000a30  0000000000000a30  00000a30  2**4
                  CONTENTS, ALLOC, LOAD, READONLY, CODE
 13 .fini         00000010  0000000000001124  0000000000001124  00001124  2**2
                  CONTENTS, ALLOC, LOAD, READONLY, CODE
 14 .rodata       00000192  0000000000001138  0000000000001138  00001138  2**3
                  CONTENTS, ALLOC, LOAD, READONLY, DATA
 15 .eh_frame_hdr 00000064  00000000000012cc  00000000000012cc  000012cc  2**2
                  CONTENTS, ALLOC, LOAD, READONLY, DATA
 16 .eh_frame     00000174  0000000000001330  0000000000001330  00001330  2**3
                  CONTENTS, ALLOC, LOAD, READONLY, DATA
 17 .init_array   00000008  0000000000011da0  0000000000011da0  00001da0  2**3
                  CONTENTS, ALLOC, LOAD, DATA
 18 .fini_array   00000008  0000000000011da8  0000000000011da8  00001da8  2**3
                  CONTENTS, ALLOC, LOAD, DATA
 19 .dynamic      000001f0  0000000000011db0  0000000000011db0  00001db0  2**3
                  CONTENTS, ALLOC, LOAD, DATA
 20 .got          00000048  0000000000011fa0  0000000000011fa0  00001fa0  2**3
                  CONTENTS, ALLOC, LOAD, DATA
 21 .got.plt      000000a0  0000000000011fe8  0000000000011fe8  00001fe8  2**3
                  CONTENTS, ALLOC, LOAD, DATA
 22 .data         00000010  0000000000012088  0000000000012088  00002088  2**3
                  CONTENTS, ALLOC, LOAD, DATA
 23 .bss          00000028  0000000000012098  0000000000012098  00002098  2**3
                  ALLOC
 24 .comment      00000027  0000000000000000  0000000000000000  00002098  2**0
                  CONTENTS, READONLY
 25 .debug_aranges 00000030  0000000000000000  0000000000000000  000020bf  2**0
                  CONTENTS, READONLY, DEBUGGING, OCTETS
 26 .debug_info   00000886  0000000000000000  0000000000000000  000020ef  2**0
                  CONTENTS, READONLY, DEBUGGING, OCTETS
 27 .debug_abbrev 0000017c  0000000000000000  0000000000000000  00002975  2**0
                  CONTENTS, READONLY, DEBUGGING, OCTETS
 28 .debug_line   000002c7  0000000000000000  0000000000000000  00002af1  2**0
                  CONTENTS, READONLY, DEBUGGING, OCTETS
 29 .debug_str    0000052e  0000000000000000  0000000000000000  00002db8  2**0
                  CONTENTS, READONLY, DEBUGGING, OCTETS
SYMBOL TABLE:
0000000000000238 l    d  .interp	0000000000000000              .interp
0000000000000254 l    d  .note.gnu.build-id	0000000000000000              .note.gnu.build-id
0000000000000278 l    d  .note.ABI-tag	0000000000000000              .note.ABI-tag
0000000000000298 l    d  .gnu.hash	0000000000000000              .gnu.hash
00000000000002b8 l    d  .dynsym	0000000000000000              .dynsym
00000000000004e0 l    d  .dynstr	0000000000000000              .dynstr
00000000000005f2 l    d  .gnu.version	0000000000000000              .gnu.version
0000000000000620 l    d  .gnu.version_r	0000000000000000              .gnu.version_r
0000000000000640 l    d  .rela.dyn	0000000000000000              .rela.dyn
0000000000000748 l    d  .rela.plt	0000000000000000              .rela.plt
00000000000008e0 l    d  .init	0000000000000000              .init
0000000000000900 l    d  .plt	0000000000000000              .plt
0000000000000a30 l    d  .text	0000000000000000              .text
0000000000001124 l    d  .fini	0000000000000000              .fini
0000000000001138 l    d  .rodata	0000000000000000              .rodata
00000000000012cc l    d  .eh_frame_hdr	0000000000000000              .eh_frame_hdr
0000000000001330 l    d  .eh_frame	0000000000000000              .eh_frame
0000000000011da0 l    d  .init_array	0000000000000000              .init_array
0000000000011da8 l    d  .fini_array	0000000000000000              .fini_array
0000000000011db0 l    d  .dynamic	0000000000000000              .dynamic
0000000000011fa0 l    d  .got	0000000000000000              .got
0000000000011fe8 l    d  .got.plt	0000000000000000              .got.plt
0000000000012088 l    d  .data	0000000000000000              .data
0000000000012098 l    d  .bss	0000000000000000              .bss
0000000000000000 l    d  .comment	0000000000000000              .comment
0000000000000000 l    d  .debug_aranges	0000000000000000              .debug_aranges
0000000000000000 l    d  .debug_info	0000000000000000              .debug_info
0000000000000000 l    d  .debug_abbrev	0000000000000000              .debug_abbrev
0000000000000000 l    d  .debug_line	0000000000000000              .debug_line
0000000000000000 l    d  .debug_str	0000000000000000              .debug_str
0000000000000000 l    df *ABS*	0000000000000000              /usr/lib/gcc/aarch64-linux-gnu/10/../../../aarch64-linux-gnu/Scrt1.o
0000000000000000 l    df *ABS*	0000000000000000              /usr/lib/gcc/aarch64-linux-gnu/10/../../../aarch64-linux-gnu/crti.o
0000000000000a68 l     F .text	0000000000000014              call_weak_fn
0000000000000000 l    df *ABS*	0000000000000000              /usr/lib/gcc/aarch64-linux-gnu/10/../../../aarch64-linux-gnu/crtn.o
0000000000000000 l    df *ABS*	0000000000000000              crtstuff.c
0000000000000a80 l     F .text	0000000000000000              deregister_tm_clones
0000000000000ab0 l     F .text	0000000000000000              register_tm_clones
0000000000000af0 l     F .text	0000000000000000              __do_global_dtors_aux
0000000000012098 l     O .bss	0000000000000001              completed.0
0000000000011da8 l     O .fini_array	0000000000000000              __do_global_dtors_aux_fini_array_entry
0000000000000b40 l     F .text	0000000000000000              frame_dummy
0000000000011da0 l     O .init_array	0000000000000000              __frame_dummy_init_array_entry
0000000000000000 l    df *ABS*	0000000000000000              c_timecalls.c
0000000000000000 l    df *ABS*	0000000000000000              elf-init.oS
0000000000000000 l    df *ABS*	0000000000000000              crtstuff.c
00000000000014a0 l     O .eh_frame	0000000000000000              __FRAME_END__
0000000000000000 l    df *ABS*	0000000000000000              
0000000000011da8 l       .init_array	0000000000000000              __init_array_end
0000000000011db0 l     O *ABS*	0000000000000000              _DYNAMIC
0000000000011da0 l       .init_array	0000000000000000              __init_array_start
00000000000012cc l       .eh_frame_hdr	0000000000000000              __GNU_EH_FRAME_HDR
0000000000011fa0 l     O *ABS*	0000000000000000              _GLOBAL_OFFSET_TABLE_
00000000000008e0 l     F .init	0000000000000000              _init
0000000000001120 g     F .text	0000000000000004              __libc_csu_fini
0000000000000000       F *UND*	0000000000000000              exit@GLIBC_2.17
0000000000000000       F *UND*	0000000000000000              execl@GLIBC_2.17
0000000000000000  w      *UND*	0000000000000000              _ITM_deregisterTMCloneTable
0000000000012088  w      .data	0000000000000000              data_start
0000000000012098 g       .bss	0000000000000000              __bss_start__
0000000000000d2c g     F .text	00000000000002b8              get_stop_syscall
0000000000000fe4 g     F .text	00000000000000bc              parent_process
0000000000000000  w    F *UND*	0000000000000000              __cxa_finalize@GLIBC_2.17
0000000000000000       O *UND*	0000000000000000              stderr@GLIBC_2.17
00000000000120c0 g       .bss	0000000000000000              _bss_end__
0000000000000000       F *UND*	0000000000000000              fork@GLIBC_2.17
0000000000012098 g       .data	0000000000000000              _edata
0000000000001124 g     F .fini	0000000000000000              .hidden _fini
00000000000120c0 g       .bss	0000000000000000              __bss_end__
0000000000000b8c g     F .text	0000000000000050              child_process
0000000000000000       F *UND*	0000000000000000              __libc_start_main@GLIBC_2.17
0000000000012088 g       .data	0000000000000000              __data_start
0000000000000bdc g     F .text	0000000000000150              config_ptrace
0000000000000000       F *UND*	0000000000000000              strerror@GLIBC_2.17
0000000000000000  w      *UND*	0000000000000000              __gmon_start__
0000000000012090 g     O .data	0000000000000000              .hidden __dso_handle
0000000000000000       F *UND*	0000000000000000              abort@GLIBC_2.17
0000000000001138 g     O .rodata	0000000000000004              _IO_stdin_used
0000000000000000       F *UND*	0000000000000000              puts@GLIBC_2.17
0000000000000000       F *UND*	0000000000000000              ptrace@GLIBC_2.17
0000000000000000       F *UND*	0000000000000000              getrusage@GLIBC_2.17
00000000000010a0 g     F .text	000000000000007c              __libc_csu_init
00000000000120c0 g       .bss	0000000000000000              _end
0000000000000a30 g     F .text	0000000000000000              _start
00000000000120c0 g       .bss	0000000000000000              __end__
0000000000012098 g       .bss	0000000000000000              __bss_start
0000000000000b44 g     F .text	0000000000000048              main
00000000000120b0 g     O .bss	0000000000000004              timeset
0000000000012098 g     O .data	0000000000000000              .hidden __TMC_END__
0000000000000000  w      *UND*	0000000000000000              _ITM_registerTMCloneTable
00000000000120a0 g     O .bss	0000000000000010              call_time
0000000000000000       F *UND*	0000000000000000              seccomp_syscall_resolve_num_arch
0000000000000000       F *UND*	0000000000000000              printf@GLIBC_2.17
0000000000000000       F *UND*	0000000000000000              __errno_location@GLIBC_2.17
0000000000000000       F *UND*	0000000000000000              putchar@GLIBC_2.17
00000000000120b8 g     O .bss	0000000000000008              call
0000000000000000       F *UND*	0000000000000000              waitpid@GLIBC_2.17
0000000000000000       F *UND*	0000000000000000              fprintf@GLIBC_2.17


Contents of section .interp:
 0238 2f6c6962 2f6c642d 6c696e75 782d6161  /lib/ld-linux-aa
 0248 72636836 342e736f 2e3100             rch64.so.1.     
Contents of section .note.gnu.build-id:
 0254 04000000 14000000 03000000 474e5500  ............GNU.
 0264 f2d9e113 708e0f16 cd521995 36d44d3e  ....p....R..6.M>
 0274 2fb35a52                             /.ZR            
Contents of section .note.ABI-tag:
 0278 04000000 10000000 01000000 474e5500  ............GNU.
 0288 00000000 03000000 07000000 00000000  ................
Contents of section .gnu.hash:
 0298 01000000 01000000 01000000 00000000  ................
 02a8 00000000 00000000 00000000           ............    
Contents of section .dynsym:
 02b8 00000000 00000000 00000000 00000000  ................
 02c8 00000000 00000000 00000000 03000b00  ................
 02d8 e0080000 00000000 00000000 00000000  ................
 02e8 00000000 03001700 88200100 00000000  ......... ......
 02f8 00000000 00000000 67000000 12000000  ........g.......
 0308 00000000 00000000 00000000 00000000  ................
 0318 6c000000 12000000 00000000 00000000  l...............
 0328 00000000 00000000 01000000 20000000  ............ ...
 0338 00000000 00000000 00000000 00000000  ................
 0348 c3000000 22000000 00000000 00000000  ...."...........
 0358 00000000 00000000 a5000000 11000000  ................
 0368 00000000 00000000 00000000 00000000  ................
 0378 77000000 12000000 00000000 00000000  w...............
 0388 00000000 00000000 db000000 12000000  ................
 0398 00000000 00000000 00000000 00000000  ................
 03a8 d2000000 12000000 00000000 00000000  ................
 03b8 00000000 00000000 1d000000 20000000  ............ ...
 03c8 00000000 00000000 00000000 00000000  ................
 03d8 84000000 12000000 00000000 00000000  ................
 03e8 00000000 00000000 72000000 12000000  ........r.......
 03f8 00000000 00000000 00000000 00000000  ................
 0408 ac000000 12000000 00000000 00000000  ................
 0418 00000000 00000000 9b000000 12000000  ................
 0428 00000000 00000000 00000000 00000000  ................
 0438 2c000000 20000000 00000000 00000000  ,... ...........
 0448 00000000 00000000 46000000 12000000  ........F.......
 0458 00000000 00000000 00000000 00000000  ................
 0468 bc000000 12000000 00000000 00000000  ................
 0478 00000000 00000000 8a000000 12000000  ................
 0488 00000000 00000000 00000000 00000000  ................
 0498 7c000000 12000000 00000000 00000000  |...............
 04a8 00000000 00000000 b3000000 12000000  ................
 04b8 00000000 00000000 00000000 00000000  ................
 04c8 bb000000 12000000 00000000 00000000  ................
 04d8 00000000 00000000                    ........        
Contents of section .dynstr:
 04e0 005f4954 4d5f6465 72656769 73746572  ._ITM_deregister
 04f0 544d436c 6f6e6554 61626c65 005f5f67  TMCloneTable.__g
 0500 6d6f6e5f 73746172 745f5f00 5f49544d  mon_start__._ITM
 0510 5f726567 69737465 72544d43 6c6f6e65  _registerTMClone
 0520 5461626c 65007365 63636f6d 705f7379  Table.seccomp_sy
 0530 7363616c 6c5f7265 736f6c76 655f6e75  scall_resolve_nu
 0540 6d5f6172 63680065 78697400 65786563  m_arch.exit.exec
 0550 6c007075 74730066 6f726b00 70757463  l.puts.fork.putc
 0560 68617200 61626f72 74005f5f 6572726e  har.abort.__errn
 0570 6f5f6c6f 63617469 6f6e0067 65747275  o_location.getru
 0580 73616765 00737464 65727200 70747261  sage.stderr.ptra
 0590 63650077 61697470 69640066 7072696e  ce.waitpid.fprin
 05a0 7466005f 5f637861 5f66696e 616c697a  tf.__cxa_finaliz
 05b0 65007374 72657272 6f72005f 5f6c6962  e.strerror.__lib
 05c0 635f7374 6172745f 6d61696e 006c6962  c_start_main.lib
 05d0 73656363 6f6d702e 736f2e32 006c6962  seccomp.so.2.lib
 05e0 632e736f 2e360047 4c494243 5f322e31  c.so.6.GLIBC_2.1
 05f0 3700                                 7.              
Contents of section .gnu.version:
 05f2 00000000 00000200 02000000 02000200  ................
 0602 02000200 02000000 02000200 02000200  ................
 0612 00000000 02000200 02000200 0200      ..............  
Contents of section .gnu.version_r:
 0620 01000100 fd000000 10000000 00000000  ................
 0630 97919606 00000200 07010000 00000000  ................
Contents of section .rela.dyn:
 0640 a01d0100 00000000 03040000 00000000  ................
 0650 400b0000 00000000 a81d0100 00000000  @...............
 0660 03040000 00000000 f00a0000 00000000  ................
 0670 a81f0100 00000000 03040000 00000000  ................
 0680 20110000 00000000 d01f0100 00000000   ...............
 0690 03040000 00000000 a0100000 00000000  ................
 06a0 d81f0100 00000000 03040000 00000000  ................
 06b0 440b0000 00000000 90200100 00000000  D........ ......
 06c0 03040000 00000000 90200100 00000000  ......... ......
 06d0 b01f0100 00000000 01040000 05000000  ................
 06e0 00000000 00000000 b81f0100 00000000  ................
 06f0 01040000 06000000 00000000 00000000  ................
 0700 c01f0100 00000000 01040000 07000000  ................
 0710 00000000 00000000 c81f0100 00000000  ................
 0720 01040000 0b000000 00000000 00000000  ................
 0730 e01f0100 00000000 01040000 10000000  ................
 0740 00000000 00000000                    ........        
Contents of section .rela.plt:
 0748 00200100 00000000 02040000 03000000  . ..............
 0758 00000000 00000000 08200100 00000000  ......... ......
 0768 02040000 04000000 00000000 00000000  ................
 0778 10200100 00000000 02040000 06000000  . ..............
 0788 00000000 00000000 18200100 00000000  ......... ......
 0798 02040000 08000000 00000000 00000000  ................
 07a8 20200100 00000000 02040000 09000000    ..............
 07b8 00000000 00000000 28200100 00000000  ........( ......
 07c8 02040000 0a000000 00000000 00000000  ................
 07d8 30200100 00000000 02040000 0b000000  0 ..............
 07e8 00000000 00000000 38200100 00000000  ........8 ......
 07f8 02040000 0c000000 00000000 00000000  ................
 0808 40200100 00000000 02040000 0d000000  @ ..............
 0818 00000000 00000000 48200100 00000000  ........H ......
 0828 02040000 0e000000 00000000 00000000  ................
 0838 50200100 00000000 02040000 0f000000  P ..............
 0848 00000000 00000000 58200100 00000000  ........X ......
 0858 02040000 11000000 00000000 00000000  ................
 0868 60200100 00000000 02040000 12000000  ` ..............
 0878 00000000 00000000 68200100 00000000  ........h ......
 0888 02040000 13000000 00000000 00000000  ................
 0898 70200100 00000000 02040000 14000000  p ..............
 08a8 00000000 00000000 78200100 00000000  ........x ......
 08b8 02040000 15000000 00000000 00000000  ................
 08c8 80200100 00000000 02040000 16000000  . ..............
 08d8 00000000 00000000                    ........        
Contents of section .init:
 08e0 fd7bbfa9 fd030091 60000094 fd7bc1a8  .{......`....{..
 08f0 c0035fd6                             .._.            
Contents of section .plt:
 0900 f07bbfa9 900000b0 11fe47f9 10e23f91  .{........G...?.
 0910 20021fd6 1f2003d5 1f2003d5 1f2003d5   .... ... ... ..
 0920 900000d0 110240f9 10020091 20021fd6  ......@..... ...
 0930 900000d0 110640f9 10220091 20021fd6  ......@..".. ...
 0940 900000d0 110a40f9 10420091 20021fd6  ......@..B.. ...
 0950 900000d0 110e40f9 10620091 20021fd6  ......@..b.. ...
 0960 900000d0 111240f9 10820091 20021fd6  ......@..... ...
 0970 900000d0 111640f9 10a20091 20021fd6  ......@..... ...
 0980 900000d0 111a40f9 10c20091 20021fd6  ......@..... ...
 0990 900000d0 111e40f9 10e20091 20021fd6  ......@..... ...
 09a0 900000d0 112240f9 10020191 20021fd6  ....."@..... ...
 09b0 900000d0 112640f9 10220191 20021fd6  .....&@..".. ...
 09c0 900000d0 112a40f9 10420191 20021fd6  .....*@..B.. ...
 09d0 900000d0 112e40f9 10620191 20021fd6  ......@..b.. ...
 09e0 900000d0 113240f9 10820191 20021fd6  .....2@..... ...
 09f0 900000d0 113640f9 10a20191 20021fd6  .....6@..... ...
 0a00 900000d0 113a40f9 10c20191 20021fd6  .....:@..... ...
 0a10 900000d0 113e40f9 10e20191 20021fd6  .....>@..... ...
 0a20 900000d0 114240f9 10020291 20021fd6  .....B@..... ...
Contents of section .text:
 0a30 1d0080d2 1e0080d2 e50300aa e10340f9  ..............@.
 0a40 e2230091 e6030091 800000b0 00ec47f9  .#............G.
 0a50 830000b0 63e847f9 840000b0 84d447f9  ....c.G.......G.
 0a60 c0ffff97 cbffff97 800000b0 00e447f9  ..............G.
 0a70 400000b4 c3ffff17 c0035fd6 1f2003d5  @........._.. ..
 0a80 800000d0 00600291 810000d0 21600291  .....`......!`..
 0a90 3f0000eb c0000054 810000b0 21d847f9  ?......T....!.G.
 0aa0 610000b4 f00301aa 00021fd6 c0035fd6  a............._.
 0ab0 800000d0 00600291 810000d0 21600291  .....`......!`..
 0ac0 210000cb 22fc7fd3 410c818b 21fc4193  !..."...A...!.A.
 0ad0 c10000b4 820000b0 42f047f9 620000b4  ........B.G.b...
 0ae0 f00302aa 00021fd6 c0035fd6 1f2003d5  .........._.. ..
 0af0 fd7bbea9 fd030091 f30b00f9 930000d0  .{..............
 0b00 60624239 40010035 800000b0 00dc47f9  `bB9@..5......G.
 0b10 800000b4 800000d0 004840f9 89ffff97  .........H@.....
 0b20 d8ffff97 20008052 60620239 f30b40f9  .... ..R`b.9..@.
 0b30 fd7bc2a8 c0035fd6 1f2003d5 1f2003d5  .{...._.. ... ..
 0b40 dcffff17 fd7bbda9 fd030091 e01f00b9  .....{..........
 0b50 e10b00f9 7fffff97 e02f00b9 e02f40b9  ........./.../@.
 0b60 1f000071 a1000054 e00b40f9 00200091  ...q...T..@.. ..
 0b70 07000094 03000014 e02f40b9 1a010094  ........./@.....
 0b80 00008052 fd7bc3a8 c0035fd6 fd7bbea9  ...R.{...._..{..
 0b90 fd030091 e00f00f9 030080d2 020080d2  ................
 0ba0 01008052 00008052 82ffff97 020080d2  ...R...R........
 0bb0 000000b0 01000591 000000b0 00200591  ............. ..
 0bc0 5cffff97 000000b0 00400591 75ffff97  \........@..u...
 0bd0 1f2003d5 fd7bc2a8 c0035fd6 fd7bbca9  . ...{...._..{..
 0be0 fd030091 f30b00f9 e02f00b9 e0e30091  ........./......
 0bf0 02008052 e10300aa e02f40b9 85ffff97  ...R...../@.....
 0c00 e03f00b9 e03f40b9 1f040031 c1010054  .?...?@....1...T
 0c10 800000b0 00e047f9 130040f9 75ffff97  ......G...@.u...
 0c20 000040b9 53ffff97 e20300aa 000000b0  ..@.S...........
 0c30 01800591 e00313aa 7affff97 e03f40b9  ........z....?@.
 0c40 38ffff97 e03b40b9 00180012 1f000071  8....;@........q
 0c50 c1000054 000000b0 00e00591 51ffff97  ...T........Q...
 0c60 20008052 2fffff97 23008052 0302a072   ..R/...#..R...r
 0c70 020080d2 e12f40b9 00408852 4dffff97  ...../@..@.RM...
 0c80 e03f00b9 e03f40b9 1f040031 c1010054  .?...?@....1...T
 0c90 800000b0 00e047f9 130040f9 55ffff97  ......G...@.U...
 0ca0 000040b9 33ffff97 e20300aa 000000b0  ..@.3...........
 0cb0 01200691 e00313aa 5affff97 e03f40b9  . ......Z....?@.
 0cc0 18ffff97 030080d2 020080d2 e12f40b9  ............./@.
 0cd0 00038052 37ffff97 e03f00b9 e03f40b9  ...R7....?...?@.
 0ce0 1f040031 c1010054 800000b0 00e047f9  ...1...T......G.
 0cf0 130040f9 3fffff97 000040b9 1dffff97  ..@.?.....@.....
 0d00 e20300aa 000000b0 01200691 e00313aa  ......... ......
 0d10 44ffff97 e03f40b9 02ffff97 1f2003d5  D....?@...... ..
 0d20 f30b40f9 fd7bc4a8 c0035fd6 fd7bada9  ..@..{...._..{..
 0d30 fd030091 f35301a9 e02f00b9 e0430391  .....S.../...C..
 0d40 e30300aa 020b80d2 e12f40b9 c0418852  ........./@..A.R
 0d50 18ffff97 e02f01b9 e02f41b9 1f040031  ...../.../A....1
 0d60 e1010054 800000b0 00e047f9 130040f9  ...T......G...@.
 0d70 20ffff97 000040b9 fefeff97 e20300aa   .....@.........
 0d80 000000b0 01800691 e00313aa 25ffff97  ............%...
 0d90 18ffff97 000040b9 e2feff97 00008012  ......@.........
 0da0 e02b01b9 e0434339 1f040071 61060054  .+...CC9...qa..T
 0db0 800000d0 00c00291 21008052 010000b9  ........!..R....
 0dc0 e0d740b9 e17740f9 02ffff97 e10300aa  ..@..w@.........
 0dd0 800000d0 00e00291 010000f9 800000d0  ................
 0de0 00e00291 000040f9 e10300aa 000000b0  ......@.........
 0df0 00200791 fbfeff97 e0030191 e10300aa  . ..............
 0e00 00008052 effeff97 1f040031 c1020054  ...R.......1...T
 0e10 800000b0 00e047f9 130040f9 800000d0  ......G...@.....
 0e20 00e00291 140040f9 f2feff97 000040b9  ......@.......@.
 0e30 d0feff97 e30300aa e20314aa 000000b0  ................
 0e40 01400791 e00313aa f6feff97 000000b0  .@..............
 0e50 00400891 d3feff97 e6feff97 000040b9  .@............@.
 0e60 b0feff97 800000d0 02800291 e00745a9  ..............E.
 0e70 400400a9 58000014 e0434339 1f080071  @...X....CC9...q
 0e80 a10a0054 800000d0 00c00291 000040b9  ...T..........@.
 0e90 1f000071 000a0054 e0030191 e10300aa  ...q...T........
 0ea0 00008052 c7feff97 1f040031 c1020054  ...R.......1...T
 0eb0 800000b0 00e047f9 130040f9 800000d0  ......G...@.....
 0ec0 00e00291 140040f9 cafeff97 000040b9  ......@.......@.
 0ed0 a8feff97 e30300aa e20314aa 000000b0  ................
 0ee0 01600891 e00313aa cefeff97 000000b0  .`..............
 0ef0 00600991 abfeff97 befeff97 000040b9  .`............@.
 0f00 88feff97 000000b0 00800991 a5feff97  ................
 0f10 e12b40f9 800000d0 00800291 000040f9  .+@...........@.
 0f20 200000cb e01b00f9 e12f40f9 800000d0   ......../@.....
 0f30 00800291 000440f9 200000cb e01f00f9  ......@. .......
 0f40 e01f40f9 1f0000f1 2a010054 e01b40f9  ..@.....*..T..@.
 0f50 000400d1 e01b00f9 e11f40f9 004888d2  ..........@..H..
 0f60 e001a0f2 2000008b e01f00f9 800000d0  .... ...........
 0f70 00800291 010040f9 800000d0 00800291  ......@.........
 0f80 000440f9 e20300aa 000000b0 00a00991  ..@.............
 0f90 94feff97 e02b40f9 e12f40f9 e20301aa  .....+@../@.....
 0fa0 e10300aa 000000b0 00000a91 8dfeff97  ................
 0fb0 e01b40f9 e11f40f9 e20301aa e10300aa  ..@...@.........
 0fc0 000000b0 00600a91 86feff97 40018052  .....`......@..R
 0fd0 8cfeff97 1f2003d5 f35341a9 fd7bd3a8  ..... ...SA..{..
 0fe0 c0035fd6 fd7bb7a9 fd030091 f30b00f9  .._..{..........
 0ff0 e02f00b9 e02f40b9 f9feff97 e0330291  ./.../@......3..
 1000 02008052 e10300aa e02f40b9 81feff97  ...R...../@.....
 1010 e08f40b9 00180012 1f000071 a1000054  ..@........q...T
 1020 00000090 00e00591 5efeff97 1a000014  ........^.......
 1030 e08f40b9 001c0012 1ffc0171 61000054  ..@........qa..T
 1040 e02f40b9 3affff97 030080d2 020080d2  ./@.:...........
 1050 e12f40b9 00038052 56feff97 1f0400b1  ./@....RV.......
 1060 e1fcff54 80000090 00e047f9 130040f9  ...T......G...@.
 1070 60feff97 000040b9 3efeff97 e20300aa  `.....@.>.......
 1080 00000090 01c00a91 e00313aa 65feff97  ............e...
 1090 dbffff17 f30b40f9 fd7bc9a8 c0035fd6  ......@..{...._.
 10a0 fd7bbca9 fd030091 f35301a9 94000090  .{.......S......
 10b0 94a23691 f55b02a9 95000090 b5823691  ..6..[........6.
 10c0 940215cb f603002a f76303a9 f70301aa  .......*.c......
 10d0 f80302aa 94fe4393 02feff97 740100b4  ......C.....t...
 10e0 130080d2 1f2003d5 a37a73f8 e20318aa  ..... ...zs.....
 10f0 73060091 e10317aa e003162a 60003fd6  s..........*`.?.
 1100 9f0213eb 21ffff54 f35341a9 f55b42a9  ....!..T.SA..[B.
 1110 f76343a9 fd7bc4a8 c0035fd6 1f2003d5  .cC..{...._.. ..
 1120 c0035fd6                             .._.            
Contents of section .fini:
 1124 fd7bbfa9 fd030091 fd7bc1a8 c0035fd6  .{.......{...._.
Contents of section .rodata:
 1138 01000200 00000000 6c730000 00000000  ........ls......
 1148 2f62696e 2f6c7300 65786563 20666169  /bin/ls.exec fai
 1158 6c656400 00000000 77616974 70696420  led.....waitpid 
 1168 6661696c 65642077 69746820 25730a00  failed with %s..
 1178 6368696c 64206578 69746564 00000000  child exited....
 1188 70747261 63652066 61696c65 64202573  ptrace failed %s
 1198 0a000000 00000000 6572726f 7220636f  ........error co
 11a8 6c6c6563 696e7420 73797363 616c6c20  llecint syscall 
 11b8 696e666f 3a202573 0a000000 00000000  info: %s........
 11c8 2573202d 20000000 6572726f 7220636f  %s - ...error co
 11d8 6c6c6563 74696e67 205b454e 5452595d  llecting [ENTRY]
 11e8 20757361 67652066 6f722025 730a2e20   usage for %s.. 
 11f8 6661696c 65642077 69746820 6572726f  failed with erro
 1208 723a2025 73000000 6661696c 00000000  r: %s...fail....
 1218 6572726f 7220636f 6c6c6563 74696e67  error collecting
 1228 205b4558 49545d20 75736167 6520666f   [EXIT] usage fo
 1238 72202573 0a2e2066 61696c65 64207769  r %s.. failed wi
 1248 74682065 72726f72 3a202573 00000000  th error: %s....
 1258 6661696c 65000000 6f6b0000 00000000  faile...ok......
 1268 09737461 72743a20 256c6473 20256c64  .start: %lds %ld
 1278 cebc730a 00000000 0973746f 703a2025  ..s......stop: %
 1288 6c647320 256c64ce bc730a00 00000000  lds %ld..s......
 1298 09647572 6174696f 6e3a2025 6c647320  .duration: %lds 
 12a8 256c64ce bc730a00 50545241 43455f53  %ld..s..PTRACE_S
 12b8 59534341 4c4c2066 61696c65 64202573  YSCALL failed %s
 12c8 0a00                                 ..              
Contents of section .eh_frame_hdr:
 12cc 011b033b 60000000 0b000000 b4f7ffff  ...;`...........
 12dc 78000000 e4f7ffff 8c000000 24f8ffff  x...........$...
 12ec a0000000 74f8ffff c4000000 78f8ffff  ....t.......x...
 12fc dc000000 c0f8ffff fc000000 10f9ffff  ................
 130c 1c010000 60faffff 40010000 18fdffff  ....`...@.......
 131c 68010000 d4fdffff 8c010000 54feffff  h...........T...
 132c c0010000                             ....            
Contents of section .eh_frame:
 1330 10000000 00000000 017a5200 04781e01  .........zR..x..
 1340 1b0c1f00 10000000 18000000 34f7ffff  ............4...
 1350 30000000 00000000 10000000 2c000000  0...........,...
 1360 50f7ffff 3c000000 00000000 20000000  P...<....... ...
 1370 40000000 7cf7ffff 48000000 00410e20  @...|...H....A. 
 1380 9d049e03 4293024e deddd30e 00000000  ....B..N........
 1390 14000000 64000000 a8f7ffff 04000000  ....d...........
 13a0 00000000 00000000 1c000000 7c000000  ............|...
 13b0 94f7ffff 48000000 00410e30 9d069e05  ....H....A.0....
 13c0 50dedd0e 00000000 1c000000 9c000000  P...............
 13d0 bcf7ffff 50000000 00410e20 9d049e03  ....P....A. ....
 13e0 52dedd0e 00000000 20000000 bc000000  R....... .......
 13f0 ecf7ffff 50010000 00410e40 9d089e07  ....P....A.@....
 1400 42930602 50deddd3 0e000000 24000000  B...P.......$...
 1410 e0000000 18f9ffff b8020000 00410eb0  .............A..
 1420 029d269e 25429324 942302aa deddd3d4  ..&.%B.$.#......
 1430 0e000000 20000000 08010000 a8fbffff  .... ...........
 1440 bc000000 00410e90 019d129e 11429310  .....A.......B..
 1450 6bdeddd3 0e000000 30000000 2c010000  k.......0...,...
 1460 40fcffff 7c000000 00410e40 9d089e07  @...|....A.@....
 1470 42930694 05439504 96034597 02980153  B....C....E....S
 1480 deddd7d8 d5d6d3d4 0e000000 10000000  ................
 1490 60010000 8cfcffff 04000000 00000000  `...............
 14a0 00000000                             ....            
Contents of section .init_array:
 11da0 400b0000 00000000                    @.......        
Contents of section .fini_array:
 11da8 f00a0000 00000000                    ........        
Contents of section .dynamic:
 11db0 01000000 00000000 ed000000 00000000  ................
 11dc0 01000000 00000000 fd000000 00000000  ................
 11dd0 0c000000 00000000 e0080000 00000000  ................
 11de0 0d000000 00000000 24110000 00000000  ........$.......
 11df0 19000000 00000000 a01d0100 00000000  ................
 11e00 1b000000 00000000 08000000 00000000  ................
 11e10 1a000000 00000000 a81d0100 00000000  ................
 11e20 1c000000 00000000 08000000 00000000  ................
 11e30 f5feff6f 00000000 98020000 00000000  ...o............
 11e40 05000000 00000000 e0040000 00000000  ................
 11e50 06000000 00000000 b8020000 00000000  ................
 11e60 0a000000 00000000 12010000 00000000  ................
 11e70 0b000000 00000000 18000000 00000000  ................
 11e80 15000000 00000000 00000000 00000000  ................
 11e90 03000000 00000000 e81f0100 00000000  ................
 11ea0 02000000 00000000 98010000 00000000  ................
 11eb0 14000000 00000000 07000000 00000000  ................
 11ec0 17000000 00000000 48070000 00000000  ........H.......
 11ed0 07000000 00000000 40060000 00000000  ........@.......
 11ee0 08000000 00000000 08010000 00000000  ................
 11ef0 09000000 00000000 18000000 00000000  ................
 11f00 fbffff6f 00000000 00000008 00000000  ...o............
 11f10 feffff6f 00000000 20060000 00000000  ...o.... .......
 11f20 ffffff6f 00000000 01000000 00000000  ...o............
 11f30 f0ffff6f 00000000 f2050000 00000000  ...o............
 11f40 f9ffff6f 00000000 06000000 00000000  ...o............
 11f50 00000000 00000000 00000000 00000000  ................
 11f60 00000000 00000000 00000000 00000000  ................
 11f70 00000000 00000000 00000000 00000000  ................
 11f80 00000000 00000000 00000000 00000000  ................
 11f90 00000000 00000000 00000000 00000000  ................
Contents of section .got:
 11fa0 b01d0100 00000000 20110000 00000000  ........ .......
 11fb0 00000000 00000000 00000000 00000000  ................
 11fc0 00000000 00000000 00000000 00000000  ................
 11fd0 a0100000 00000000 440b0000 00000000  ........D.......
 11fe0 00000000 00000000                    ........        
Contents of section .got.plt:
 11fe8 00000000 00000000 00000000 00000000  ................
 11ff8 00000000 00000000 00090000 00000000  ................
 12008 00090000 00000000 00090000 00000000  ................
 12018 00090000 00000000 00090000 00000000  ................
 12028 00090000 00000000 00090000 00000000  ................
 12038 00090000 00000000 00090000 00000000  ................
 12048 00090000 00000000 00090000 00000000  ................
 12058 00090000 00000000 00090000 00000000  ................
 12068 00090000 00000000 00090000 00000000  ................
 12078 00090000 00000000 00090000 00000000  ................
Contents of section .data:
 12088 00000000 00000000 90200100 00000000  ......... ......
Contents of section .comment:
 0000 4743433a 20284465 6269616e 2031302e  GCC: (Debian 10.
 0010 322e312d 36292031 302e322e 31203230  2.1-6) 10.2.1 20
 0020 32313031 313000                      210110.         
Contents of section .debug_aranges:
 0000 2c000000 02000000 00000800 00000000  ,...............
 0010 440b0000 00000000 5c050000 00000000  D.......\.......
 0020 00000000 00000000 00000000 00000000  ................
Contents of section .debug_info:
 0000 82080000 04000000 00000801 e3020000  ................
 0010 0cb50300 009d0000 00440b00 00000000  .........D......
 0020 005c0500 00000000 00000000 00020108  .\..............
 0030 91030000 0202070c 02000002 04077500  ..............u.
 0040 00000208 07700000 00020106 93030000  .....p..........
 0050 020205cb 03000003 0405696e 74000208  ..........int...
 0060 05bf0000 00040000 00000298 195e0000  .............^..
 0070 00042704 00000299 1b5e0000 0004c303  ..'......^......
 0080 0000029a 19570000 00047204 000002a0  .....W....r.....
 0090 1a5e0000 0004e101 000002a2 1f5e0000  .^...........^..
 00a0 00050804 92020000 02c4215e 00000006  ..........!^....
 00b0 08b50000 00020108 9a030000 04c50100  ................
 00c0 00031517 2d000000 04ca0100 00031b16  ....-...........
 00d0 3b000000 048e0000 00031e2c e0000000  ;..........,....
 00e0 020805ba 00000004 21040000 031f2af3  ........!.....*.
 00f0 00000002 08076b00 000007e7 0000000a  ......k.........
 0100 01000008 42000000 05000938 0459032d  ....B......8.Y.-
 0110 0100000a 6e720004 5a0ae700 0000000b  ....nr..Z.......
 0120 03050000 045b0afa 00000008 00091004  .....[..........
 0130 5d035101 00000b90 04000004 5e0ad400  ].Q.........^...
 0140 0000000b 36000000 045f09bc 00000008  ....6...._......
 0150 00094004 61038101 00000a6e 72000462  ..@.a......nr..b
 0160 0ae70000 00000b03 05000004 630afa00  ............c...
 0170 0000080b a4010000 04640ac8 00000038  .........d.....8
 0180 000c4004 5802af01 00000d65 00000004  ..@.X......e....
 0190 5c050a01 00000df6 03000004 60052d01  \...........`.-.
 01a0 00000d79 01000004 65055101 0000000e  ...y....e.Q.....
 01b0 eb000000 58045208 03020000 0a6f7000  ....X.R......op.
 01c0 045307bc 00000000 0a706164 00045407  .S.......pad..T.
 01d0 03020000 010b2d02 00000455 08c80000  ......-....U....
 01e0 00040b3f 03000004 5608e700 0000080b  ...?....V.......
 01f0 fb030000 045708e7 00000010 0f810100  .....W..........
 0200 00180007 bc000000 13020000 08420000  .............B..
 0210 00020002 10077f03 000004c5 03000005  ................
 0220 1f117d00 00000426 00000006 d1174200  ..}....&......B.
 0230 00000e48 02000010 0708085a 0200000b  ...H.......Z....
 0240 8b020000 070a0c89 00000000 0b090400  ................
 0250 00070b11 95000000 08000608 af000000  ................
 0260 0eda0200 00d80831 08e70300 000b1f01  .......1........
 0270 00000833 07570000 00000b08 00000008  ...3.W..........
 0280 3609af00 0000080b ff000000 083709af  6............7..
 0290 00000010 0b3d0400 00083809 af000000  .....=....8.....
 02a0 180b1405 00000839 09af0000 00200bef  .......9..... ..
 02b0 01000008 3a09af00 0000280b c1020000  ....:.....(.....
 02c0 083b09af 00000030 0b580000 00083c09  .;.....0.X....<.
 02d0 af000000 380b3601 0000083d 09af0000  ....8.6....=....
 02e0 00400b1f 02000008 4009af00 0000480b  .@......@.....H.
 02f0 9c040000 084109af 00000050 0b4b0400  .....A.....P.K..
 0300 00084209 af000000 580b6c03 00000844  ..B.....X.l....D
 0310 16000400 00600b15 00000008 46140604  .....`......F...
 0320 0000680b e3000000 08480757 00000070  ..h......H.W...p
 0330 0b400200 00084907 57000000 740b9801  .@....I.W...t...
 0340 0000084a 0b650000 00780b31 04000008  ...J.e...x.1....
 0350 4d123400 0000800b e7030000 084e0f49  M.4..........N.I
 0360 00000082 0b1c0000 00084f08 0c040000  ..........O.....
 0370 830b3a02 00000851 0f1c0400 00880b9c  ..:....Q........
 0380 01000008 590d7100 0000900b 5f010000  ....Y.q....._...
 0390 085b1727 04000098 0be70400 00085c19  .[.'..........\.
 03a0 32040000 a00bd604 0000085d 14060400  2..........]....
 03b0 00a80bb8 01000008 5e09a100 0000b00b  ........^.......
 03c0 6b040000 085f0a26 020000b8 0b5c0300  k...._.&.....\..
 03d0 00086007 57000000 c00b7b04 00000862  ..`.W.....{....b
 03e0 08380400 00c40004 de020000 09071960  .8.............`
 03f0 02000010 cf020000 082b0e11 ad010000  .........+......
 0400 0608fb03 00000608 60020000 07b50000  ........`.......
 0410 001c0400 00084200 00000000 0608f303  ......B.........
 0420 0000115c 01000006 08220400 0011e404  ...\....."......
 0430 00000608 2d040000 07b50000 00480400  ....-........H..
 0440 00084200 00001300 0608e703 00001284  ..B.............
 0450 0400000b 8b0e4804 00000c08 0a28137c  ......H......(.|
 0460 0400000d 61040000 0a2a0b5e 0000000d  ....a....*.^....
 0470 59020000 0a2b14a3 00000000 0c080a2f  Y....+........./
 0480 139e0400 000d2d00 00000a31 0b5e0000  ......-....1.^..
 0490 000d2601 00000a32 14a30000 00000c08  ..&....2........
 04a0 0a3513c0 0400000d 81010000 0a370b5e  .5...........7.^
 04b0 0000000d 4c010000 0a3814a3 00000000  ....L....8......
 04c0 0c080a3b 13e20400 000d5303 00000a3d  ...;......S....=
 04d0 0b5e0000 000d6a02 00000a3e 15a30000  .^....j....>....
 04e0 00000c08 0a421304 0500000d 42010000  .....B......B...
 04f0 0a440b5e 0000000d 68010000 0a4514a3  .D.^....h....E..
 0500 00000000 0c080a48 13260500 000d7503  .......H.&....u.
 0510 00000a4a 0b5e0000 000dac04 00000a4b  ...J.^.........K
 0520 14a30000 00000c08 0a4e1348 0500000d  .........N.H....
 0530 50020000 0a500b5e 0000000d 11040000  P....P.^........
 0540 0a5114a3 00000000 0c080a55 136a0500  .Q.........U.j..
 0550 000d2305 00000a57 0b5e0000 000daf02  ..#....W.^......
 0560 00000a58 14a30000 00000c08 0a5b138c  ...X.........[..
 0570 0500000d a4020000 0a5d0b5e 0000000d  .........].^....
 0580 d5030000 0a5e14a3 00000000 0c080a61  .....^.........a
 0590 13ae0500 000dc800 00000a63 0b5e0000  ...........c.^..
 05a0 000dd200 00000a64 14a30000 00000c08  .......d........
 05b0 0a6713d0 0500000d bd040000 0a690b5e  .g...........i.^
 05c0 0000000d 7a020000 0a6a14a3 00000000  ....z....j......
 05d0 0c080a6d 13f20500 000d8200 00000a6f  ...m...........o
 05e0 0b5e0000 000d0c01 00000a70 14a30000  .^.........p....
 05f0 00000c08 0a751314 0600000d 94000000  .....u..........
 0600 0a770b5e 0000000d a5030000 0a7814a3  .w.^.........x..
 0610 00000000 0c080a7c 13360600 000dc704  .......|.6......
 0620 00000a7e 0b5e0000 000dd001 00000a7f  ...~.^..........
 0630 14a30000 00000e08 05000090 0a2108b2  .............!..
 0640 0600000b 58040000 0a241432 02000000  ....X....$.2....
 0650 0b360300 000a2614 32020000 100f5a04  .6....&.2.....Z.
 0660 0000200f 7c040000 280f9e04 0000300f  .. .|...(.....0.
 0670 c0040000 380fe204 0000400f 04050000  ....8.....@.....
 0680 480f2605 0000500f 48050000 580f6a05  H.&...P.H...X.j.
 0690 0000600f 8c050000 680fae05 0000700f  ..`.....h.....p.
 06a0 d0050000 780ff205 0000800f 14060000  ....x...........
 06b0 88001362 03000001 17103202 00000903  ...b......2.....
 06c0 a0200100 00000000 13320200 00011805  . .......2......
 06d0 57000000 0903b020 01000000 000013fe  W...... ........
 06e0 04000001 1907af00 00000903 b8200100  ............. ..
 06f0 00000000 14fd0100 00016b06 e40f0000  ..........k.....
 0700 00000000 bc000000 00000000 019c4207  ..............B.
 0710 0000159f 03000001 6b1b1a02 00000391  ........k.......
 0720 9c7f1695 04000001 6d075700 00000291  ........m.W.....
 0730 7c16fa00 0000016e 1eaf0100 000391a0  |......n........
 0740 7f0014f2 04000001 45062c0d 00000000  ........E.,.....
 0750 0000b802 00000000 0000019c bf070000  ................
 0760 17706964 0001451d 1a020000 0391fc7d  .pid..E........}
 0770 16fa0000 0001491e af010000 0391a07f  ......I.........
 0780 18657272 00014a07 57000000 02917c16  .err..J.W.....|.
 0790 fb040000 014f0757 00000002 91781609  .....O.W.....x..
 07a0 05000001 50113606 00000391 907e164d  ....P.6......~.M
 07b0 00000001 51123202 00000391 807e0014  ....Q.2......~..
 07c0 8a010000 012b06dc 0b000000 00000050  .....+.........P
 07d0 01000000 00000001 9c0b0800 00177069  ..............pi
 07e0 6400012b 1a1a0200 0002916c 16950400  d..+.......l....
 07f0 00012f07 57000000 02917818 65727200  ../.W.....x.err.
 0800 012f0f57 00000002 917c0014 3f000000  ./.W.....|..?...
 0810 0125068c 0b000000 00000050 00000000  .%.........P....
 0820 00000001 9c390800 00150305 00000125  .....9.........%
 0830 1a5a0200 00029178 00190f05 0000011b  .Z.....x........
 0840 05570000 00440b00 00000000 00480000  .W...D.......H..
 0850 00000000 00019c15 d1040000 011b0e57  ...............W
 0860 00000002 916c158b 04000001 1b1a5a02  .....l........Z.
 0870 00000291 60169f03 0000011c 091a0200  ....`...........
 0880 0002917c 0000                        ...|..          
Contents of section .debug_abbrev:
 0000 01110125 0e130b03 0e1b0e11 01120710  ...%............
 0010 17000002 24000b0b 3e0b030e 00000324  ....$...>......$
 0020 000b0b3e 0b030800 00041600 030e3a0b  ...>..........:.
 0030 3b0b390b 49130000 050f000b 0b000006  ;.9.I...........
 0040 0f000b0b 49130000 07010149 13011300  ....I......I....
 0050 00082100 49132f0b 00000913 010b0b3a  ..!.I./........:
 0060 0b3b0b39 0b011300 000a0d00 03083a0b  .;.9..........:.
 0070 3b0b390b 4913380b 00000b0d 00030e3a  ;.9.I.8........:
 0080 0b3b0b39 0b491338 0b00000c 17010b0b  .;.9.I.8........
 0090 3a0b3b0b 390b0113 00000d0d 00030e3a  :.;.9..........:
 00a0 0b3b0b39 0b491300 000e1301 030e0b0b  .;.9.I..........
 00b0 3a0b3b0b 390b0113 00000f0d 00491338  :.;.9........I.8
 00c0 0b000010 1600030e 3a0b3b0b 390b0000  ........:.;.9...
 00d0 11130003 0e3c1900 00123400 030e3a0b  .....<....4...:.
 00e0 3b0b390b 49133f19 3c190000 13340003  ;.9.I.?.<....4..
 00f0 0e3a0b3b 0b390b49 133f1902 18000014  .:.;.9.I.?......
 0100 2e013f19 030e3a0b 3b0b390b 27191101  ..?...:.;.9.'...
 0110 12074018 96421901 13000015 0500030e  ..@..B..........
 0120 3a0b3b0b 390b4913 02180000 16340003  :.;.9.I......4..
 0130 0e3a0b3b 0b390b49 13021800 00170500  .:.;.9.I........
 0140 03083a0b 3b0b390b 49130218 00001834  ..:.;.9.I......4
 0150 0003083a 0b3b0b39 0b491302 18000019  ...:.;.9.I......
 0160 2e013f19 030e3a0b 3b0b390b 27194913  ..?...:.;.9.'.I.
 0170 11011207 40189642 19000000           ....@..B....    
Contents of section .debug_line:
 0000 c3020000 03008001 00000401 fb0e0d00  ................
 0010 01010101 00000001 0000012f 7573722f  .........../usr/
 0020 696e636c 7564652f 61617263 6836342d  include/aarch64-
 0030 6c696e75 782d676e 752f6269 7473002f  linux-gnu/bits./
 0040 7573722f 696e636c 7564652f 61736d2d  usr/include/asm-
 0050 67656e65 72696300 2f757372 2f696e63  generic./usr/inc
 0060 6c756465 2f6c696e 7578002f 7573722f  lude/linux./usr/
 0070 696e636c 7564652f 61617263 6836342d  include/aarch64-
 0080 6c696e75 782d676e 752f7379 73002f75  linux-gnu/sys./u
 0090 73722f6c 69622f67 63632f61 61726368  sr/lib/gcc/aarch
 00a0 36342d6c 696e7578 2d676e75 2f31302f  64-linux-gnu/10/
 00b0 696e636c 75646500 2f757372 2f696e63  include./usr/inc
 00c0 6c756465 2f616172 63683634 2d6c696e  lude/aarch64-lin
 00d0 75782d67 6e752f62 6974732f 74797065  ux-gnu/bits/type
 00e0 73002f75 73722f69 6e636c75 64650000  s./usr/include..
 00f0 635f7469 6d656361 6c6c732e 63000000  c_timecalls.c...
 0100 00747970 65732e68 00010000 696e742d  .types.h....int-
 0110 6c6c3634 2e680002 00007074 72616365  ll64.h....ptrace
 0120 2e680003 00007761 69742e68 00040000  .h....wait.h....
 0130 73746464 65662e68 00050000 73747275  stddef.h....stru
 0140 63745f74 696d6576 616c2e68 00060000  ct_timeval.h....
 0150 73747275 63745f46 494c452e 68000600  struct_FILE.h...
 0160 0046494c 452e6800 06000073 74727563  .FILE.h....struc
 0170 745f7275 73616765 2e680006 00007374  t_rusage.h....st
 0180 64696f2e 68000700 00000522 00090244  dio.h......"...D
 0190 0b000000 00000003 1a010511 4b05062f  ............K../
 01a0 05053d4c 050a3005 01210522 3005033d  ..=L..0..!."0..=
 01b0 59670501 3d051f3e 05094f05 06670505  Yg..=..>..O..g..
 01c0 3d053a3c 05052075 05073005 062e0505  =.:<.. u..0.....
 01d0 2f3d0509 30050766 05062105 053d0534  /=..0..f..!..=.4
 01e0 3c050520 75050930 05075805 06210505  <.. u..0..X..!..
 01f0 3d05343c 05052075 05013005 214c050d  =.4<.. u..0.!L..
 0200 4f050766 05062105 053d0544 3c050520  O..f..!..=.D<.. 
 0210 050a7505 05200507 30050b31 05062005  ..u.. ..0..1.. .
 0220 0d2f050c 4b054220 050c2005 0a2e0505  ./..K.B .. .....
 0230 3d050975 05084a05 072f0568 66050720  =..u..J../.hf.. 
 0240 83050c3d 05072005 0f300501 030e4a05  ...=.. ..0....J.
 0250 12037320 050d2005 3d000204 012e0532  ..s .. .=......2
 0260 00020401 3c05092f 05084a05 072f0567  ....<../..J../.g
 0270 66050720 83050c3d 05072005 05303d00  f.. ...=.. ..0=.
 0280 02040106 e406839f 75750501 3005224c  ........uu..0."L
 0290 05034b05 05320509 5a05082e 05072f3d  ..K..2..Z...../=
 02a0 05102105 0f2e0507 2f050930 05085805  ..!...../..0..X.
 02b0 072f053e 3c050720 05050377 74050103  ./.><.. ...wt...
 02c0 0c200203 000101                      . .....         
Contents of section .debug_str:
 0000 5f5f6f66 665f7400 5f494f5f 72656164  __off_t._IO_read
 0010 5f707472 005f6368 61696e00 5f73686f  _ptr._chain._sho
 0020 72746275 66007369 7a655f74 0072755f  rtbuf.size_t.ru_
 0030 69787273 73006973 5f657272 6f720063  ixrss.is_error.c
 0040 68696c64 5f70726f 63657373 00646966  hild_process.dif
 0050 66657265 6e636500 5f494f5f 6275665f  ference._IO_buf_
 0060 62617365 00656e74 7279006c 6f6e6720  base.entry.long 
 0070 6c6f6e67 20756e73 69676e65 6420696e  long unsigned in
 0080 74007275 5f6e7369 676e616c 73005f5f  t.ru_nsignals.__
 0090 73363400 72755f6e 76637377 002f776f  s64.ru_nvcsw./wo
 00a0 726b7370 61636573 2f437269 636b6574  rkspaces/Cricket
 00b0 2f657861 6d706c65 73006c6f 6e67206c  /examples.long l
 00c0 6f6e6720 696e7400 72755f6d 7367736e  ong int.ru_msgsn
 00d0 64005f5f 72755f6d 7367736e 645f776f  d.__ru_msgsnd_wo
 00e0 7264005f 66696c65 6e6f0070 74726163  rd._fileno.ptrac
 00f0 655f7379 7363616c 6c5f696e 666f005f  e_syscall_info._
 0100 494f5f72 6561645f 656e6400 5f5f7275  IO_read_end.__ru
 0110 5f6e7369 676e616c 735f776f 7264005f  _nsignals_word._
 0120 666c6167 73005f5f 72755f69 78727373  flags.__ru_ixrss
 0130 5f776f72 64005f49 4f5f6275 665f656e  _word._IO_buf_en
 0140 64007275 5f6d696e 666c7400 5f5f7275  d.ru_minflt.__ru
 0150 5f696472 73735f77 6f726400 5f494f5f  _idrss_word._IO_
 0160 636f6465 63767400 5f5f7275 5f6d696e  codecvt.__ru_min
 0170 666c745f 776f7264 00736563 636f6d70  flt_word.seccomp
 0180 0072755f 69647273 7300636f 6e666967  .ru_idrss.config
 0190 5f707472 61636500 5f6f6c64 5f6f6666  _ptrace._old_off
 01a0 73657400 7265745f 64617461 005f494f  set.ret_data._IO
 01b0 5f6d6172 6b657200 5f667265 65726573  _marker._freeres
 01c0 5f627566 005f5f75 38005f5f 75333200  _buf.__u8.__u32.
 01d0 5f5f7275 5f6e6976 6373775f 776f7264  __ru_nivcsw_word
 01e0 005f5f73 75736563 6f6e6473 5f74005f  .__suseconds_t._
 01f0 494f5f77 72697465 5f707472 00706172  IO_write_ptr.par
 0200 656e745f 70726f63 65737300 73686f72  ent_process.shor
 0210 7420756e 7369676e 65642069 6e74005f  t unsigned int._
 0220 494f5f73 6176655f 62617365 00617263  IO_save_base.arc
 0230 68007469 6d657365 74005f6c 6f636b00  h.timeset._lock.
 0240 5f666c61 67733200 74696d65 76616c00  _flags2.timeval.
 0250 72755f6e 73776170 005f5f72 755f6d61  ru_nswap.__ru_ma
 0260 78727373 5f776f72 64005f5f 72755f69  xrss_word.__ru_i
 0270 73727373 5f776f72 64005f5f 72755f6d  srss_word.__ru_m
 0280 73677263 765f776f 72640074 765f7365  sgrcv_word.tv_se
 0290 63005f5f 73797363 616c6c5f 736c6f6e  c.__syscall_slon
 02a0 675f7400 72755f6f 75626c6f 636b005f  g_t.ru_oublock._
 02b0 5f72755f 696e626c 6f636b5f 776f7264  _ru_inblock_word
 02c0 005f494f 5f777269 74655f65 6e64005f  ._IO_write_end._
 02d0 494f5f6c 6f636b5f 74005f49 4f5f4649  IO_lock_t._IO_FI
 02e0 4c450047 4e552043 31372031 302e322e  LE.GNU C17 10.2.
 02f0 31203230 32313031 3130202d 6d6c6974  1 20210110 -mlit
 0300 746c652d 656e6469 616e202d 6d616269  tle-endian -mabi
 0310 3d6c7036 34202d67 202d6661 73796e63  =lp64 -g -fasync
 0320 68726f6e 6f75732d 756e7769 6e642d74  hronous-unwind-t
 0330 61626c65 73007275 5f737469 6d650069  ables.ru_stime.i
 0340 6e737472 75637469 6f6e5f70 6f696e74  nstruction_point
 0350 65720072 755f6973 72737300 5f6d6f64  er.ru_isrss._mod
 0360 65006361 6c6c5f74 696d6500 5f6d6172  e.call_time._mar
 0370 6b657273 0072755f 6d616a66 6c74005f  kers.ru_majflt._
 0380 5f696e74 31323820 756e7369 676e6564  _int128 unsigned
 0390 00756e73 69676e65 64206368 61720063  .unsigned char.c
 03a0 68696c64 005f5f72 755f6e76 6373775f  hild.__ru_nvcsw_
 03b0 776f7264 00635f74 696d6563 616c6c73  word.c_timecalls
 03c0 2e63005f 5f706964 5f740073 686f7274  .c.__pid_t.short
 03d0 20696e74 005f5f72 755f6f75 626c6f63   int.__ru_oubloc
 03e0 6b5f776f 7264005f 76746162 6c655f6f  k_word._vtable_o
 03f0 66667365 74006578 69740073 7461636b  ffset.exit.stack
 0400 5f706f69 6e746572 0074765f 75736563  _pointer.tv_usec
 0410 005f5f72 755f6e73 7761705f 776f7264  .__ru_nswap_word
 0420 005f5f75 3634005f 5f6f6666 36345f74  .__u64.__off64_t
 0430 005f6375 725f636f 6c756d6e 005f494f  ._cur_column._IO
 0440 5f726561 645f6261 7365005f 494f5f73  _read_base._IO_s
 0450 6176655f 656e6400 72755f75 74696d65  ave_end.ru_utime
 0460 0072755f 6d617872 7373005f 5f706164  .ru_maxrss.__pad
 0470 35005f5f 74696d65 5f74005f 756e7573  5.__time_t._unus
 0480 65643200 73746465 72720061 72677600  ed2.stderr.argv.
 0490 7276616c 00737461 74757300 5f494f5f  rval.status._IO_
 04a0 6261636b 75705f62 61736500 5f5f7275  backup_base.__ru
 04b0 5f6d616a 666c745f 776f7264 0072755f  _majflt_word.ru_
 04c0 6d736772 63760072 755f6e69 76637377  msgrcv.ru_nivcsw
 04d0 00617267 63005f66 72656572 65735f6c  .argc._freeres_l
 04e0 69737400 5f494f5f 77696465 5f646174  ist._IO_wide_dat
 04f0 61006765 745f7374 6f705f73 79736361  a.get_stop_sysca
 0500 6c6c0061 72677300 72757361 6765006d  ll.args.rusage.m
 0510 61696e00 5f494f5f 77726974 655f6261  ain._IO_write_ba
 0520 73650072 755f696e 626c6f63 6b00      se.ru_inblock.  

Disassembly of section .init:

00000000000008e0 <_init>:
 8e0:	a9bf7bfd 	stp	x29, x30, [sp, #-16]!
 8e4:	910003fd 	mov	x29, sp
 8e8:	94000060 	bl	a68 <call_weak_fn>
 8ec:	a8c17bfd 	ldp	x29, x30, [sp], #16
 8f0:	d65f03c0 	ret

Disassembly of section .plt:

0000000000000900 <.plt>:
 900:	a9bf7bf0 	stp	x16, x30, [sp, #-16]!
 904:	b0000090 	adrp	x16, 11000 <__FRAME_END__+0xfb60>
 908:	f947fe11 	ldr	x17, [x16, #4088]
 90c:	913fe210 	add	x16, x16, #0xff8
 910:	d61f0220 	br	x17
 914:	d503201f 	nop
 918:	d503201f 	nop
 91c:	d503201f 	nop

0000000000000920 <exit@plt>:
 920:	d0000090 	adrp	x16, 12000 <exit@GLIBC_2.17>
 924:	f9400211 	ldr	x17, [x16]
 928:	91000210 	add	x16, x16, #0x0
 92c:	d61f0220 	br	x17

0000000000000930 <execl@plt>:
 930:	d0000090 	adrp	x16, 12000 <exit@GLIBC_2.17>
 934:	f9400611 	ldr	x17, [x16, #8]
 938:	91002210 	add	x16, x16, #0x8
 93c:	d61f0220 	br	x17

0000000000000940 <__cxa_finalize@plt>:
 940:	d0000090 	adrp	x16, 12000 <exit@GLIBC_2.17>
 944:	f9400a11 	ldr	x17, [x16, #16]
 948:	91004210 	add	x16, x16, #0x10
 94c:	d61f0220 	br	x17

0000000000000950 <fork@plt>:
 950:	d0000090 	adrp	x16, 12000 <exit@GLIBC_2.17>
 954:	f9400e11 	ldr	x17, [x16, #24]
 958:	91006210 	add	x16, x16, #0x18
 95c:	d61f0220 	br	x17

0000000000000960 <__libc_start_main@plt>:
 960:	d0000090 	adrp	x16, 12000 <exit@GLIBC_2.17>
 964:	f9401211 	ldr	x17, [x16, #32]
 968:	91008210 	add	x16, x16, #0x20
 96c:	d61f0220 	br	x17

0000000000000970 <strerror@plt>:
 970:	d0000090 	adrp	x16, 12000 <exit@GLIBC_2.17>
 974:	f9401611 	ldr	x17, [x16, #40]
 978:	9100a210 	add	x16, x16, #0x28
 97c:	d61f0220 	br	x17

0000000000000980 <__gmon_start__@plt>:
 980:	d0000090 	adrp	x16, 12000 <exit@GLIBC_2.17>
 984:	f9401a11 	ldr	x17, [x16, #48]
 988:	9100c210 	add	x16, x16, #0x30
 98c:	d61f0220 	br	x17

0000000000000990 <abort@plt>:
 990:	d0000090 	adrp	x16, 12000 <exit@GLIBC_2.17>
 994:	f9401e11 	ldr	x17, [x16, #56]
 998:	9100e210 	add	x16, x16, #0x38
 99c:	d61f0220 	br	x17

00000000000009a0 <puts@plt>:
 9a0:	d0000090 	adrp	x16, 12000 <exit@GLIBC_2.17>
 9a4:	f9402211 	ldr	x17, [x16, #64]
 9a8:	91010210 	add	x16, x16, #0x40
 9ac:	d61f0220 	br	x17

00000000000009b0 <ptrace@plt>:
 9b0:	d0000090 	adrp	x16, 12000 <exit@GLIBC_2.17>
 9b4:	f9402611 	ldr	x17, [x16, #72]
 9b8:	91012210 	add	x16, x16, #0x48
 9bc:	d61f0220 	br	x17

00000000000009c0 <getrusage@plt>:
 9c0:	d0000090 	adrp	x16, 12000 <exit@GLIBC_2.17>
 9c4:	f9402a11 	ldr	x17, [x16, #80]
 9c8:	91014210 	add	x16, x16, #0x50
 9cc:	d61f0220 	br	x17

00000000000009d0 <seccomp_syscall_resolve_num_arch@plt>:
 9d0:	d0000090 	adrp	x16, 12000 <exit@GLIBC_2.17>
 9d4:	f9402e11 	ldr	x17, [x16, #88]
 9d8:	91016210 	add	x16, x16, #0x58
 9dc:	d61f0220 	br	x17

00000000000009e0 <printf@plt>:
 9e0:	d0000090 	adrp	x16, 12000 <exit@GLIBC_2.17>
 9e4:	f9403211 	ldr	x17, [x16, #96]
 9e8:	91018210 	add	x16, x16, #0x60
 9ec:	d61f0220 	br	x17

00000000000009f0 <__errno_location@plt>:
 9f0:	d0000090 	adrp	x16, 12000 <exit@GLIBC_2.17>
 9f4:	f9403611 	ldr	x17, [x16, #104]
 9f8:	9101a210 	add	x16, x16, #0x68
 9fc:	d61f0220 	br	x17

0000000000000a00 <putchar@plt>:
 a00:	d0000090 	adrp	x16, 12000 <exit@GLIBC_2.17>
 a04:	f9403a11 	ldr	x17, [x16, #112]
 a08:	9101c210 	add	x16, x16, #0x70
 a0c:	d61f0220 	br	x17

0000000000000a10 <waitpid@plt>:
 a10:	d0000090 	adrp	x16, 12000 <exit@GLIBC_2.17>
 a14:	f9403e11 	ldr	x17, [x16, #120]
 a18:	9101e210 	add	x16, x16, #0x78
 a1c:	d61f0220 	br	x17

0000000000000a20 <fprintf@plt>:
 a20:	d0000090 	adrp	x16, 12000 <exit@GLIBC_2.17>
 a24:	f9404211 	ldr	x17, [x16, #128]
 a28:	91020210 	add	x16, x16, #0x80
 a2c:	d61f0220 	br	x17

Disassembly of section .text:

0000000000000a30 <_start>:
     a30:	d280001d 	mov	x29, #0x0                   	// #0
     a34:	d280001e 	mov	x30, #0x0                   	// #0
     a38:	aa0003e5 	mov	x5, x0
     a3c:	f94003e1 	ldr	x1, [sp]
     a40:	910023e2 	add	x2, sp, #0x8
     a44:	910003e6 	mov	x6, sp
     a48:	b0000080 	adrp	x0, 11000 <__FRAME_END__+0xfb60>
     a4c:	f947ec00 	ldr	x0, [x0, #4056]
     a50:	b0000083 	adrp	x3, 11000 <__FRAME_END__+0xfb60>
     a54:	f947e863 	ldr	x3, [x3, #4048]
     a58:	b0000084 	adrp	x4, 11000 <__FRAME_END__+0xfb60>
     a5c:	f947d484 	ldr	x4, [x4, #4008]
     a60:	97ffffc0 	bl	960 <__libc_start_main@plt>
     a64:	97ffffcb 	bl	990 <abort@plt>

0000000000000a68 <call_weak_fn>:
     a68:	b0000080 	adrp	x0, 11000 <__FRAME_END__+0xfb60>
     a6c:	f947e400 	ldr	x0, [x0, #4040]
     a70:	b4000040 	cbz	x0, a78 <call_weak_fn+0x10>
     a74:	17ffffc3 	b	980 <__gmon_start__@plt>
     a78:	d65f03c0 	ret
     a7c:	d503201f 	nop

0000000000000a80 <deregister_tm_clones>:
     a80:	d0000080 	adrp	x0, 12000 <exit@GLIBC_2.17>
     a84:	91026000 	add	x0, x0, #0x98
     a88:	d0000081 	adrp	x1, 12000 <exit@GLIBC_2.17>
     a8c:	91026021 	add	x1, x1, #0x98
     a90:	eb00003f 	cmp	x1, x0
     a94:	540000c0 	b.eq	aac <deregister_tm_clones+0x2c>  // b.none
     a98:	b0000081 	adrp	x1, 11000 <__FRAME_END__+0xfb60>
     a9c:	f947d821 	ldr	x1, [x1, #4016]
     aa0:	b4000061 	cbz	x1, aac <deregister_tm_clones+0x2c>
     aa4:	aa0103f0 	mov	x16, x1
     aa8:	d61f0200 	br	x16
     aac:	d65f03c0 	ret

0000000000000ab0 <register_tm_clones>:
     ab0:	d0000080 	adrp	x0, 12000 <exit@GLIBC_2.17>
     ab4:	91026000 	add	x0, x0, #0x98
     ab8:	d0000081 	adrp	x1, 12000 <exit@GLIBC_2.17>
     abc:	91026021 	add	x1, x1, #0x98
     ac0:	cb000021 	sub	x1, x1, x0
     ac4:	d37ffc22 	lsr	x2, x1, #63
     ac8:	8b810c41 	add	x1, x2, x1, asr #3
     acc:	9341fc21 	asr	x1, x1, #1
     ad0:	b40000c1 	cbz	x1, ae8 <register_tm_clones+0x38>
     ad4:	b0000082 	adrp	x2, 11000 <__FRAME_END__+0xfb60>
     ad8:	f947f042 	ldr	x2, [x2, #4064]
     adc:	b4000062 	cbz	x2, ae8 <register_tm_clones+0x38>
     ae0:	aa0203f0 	mov	x16, x2
     ae4:	d61f0200 	br	x16
     ae8:	d65f03c0 	ret
     aec:	d503201f 	nop

0000000000000af0 <__do_global_dtors_aux>:
     af0:	a9be7bfd 	stp	x29, x30, [sp, #-32]!
     af4:	910003fd 	mov	x29, sp
     af8:	f9000bf3 	str	x19, [sp, #16]
     afc:	d0000093 	adrp	x19, 12000 <exit@GLIBC_2.17>
     b00:	39426260 	ldrb	w0, [x19, #152]
     b04:	35000140 	cbnz	w0, b2c <__do_global_dtors_aux+0x3c>
     b08:	b0000080 	adrp	x0, 11000 <__FRAME_END__+0xfb60>
     b0c:	f947dc00 	ldr	x0, [x0, #4024]
     b10:	b4000080 	cbz	x0, b20 <__do_global_dtors_aux+0x30>
     b14:	d0000080 	adrp	x0, 12000 <exit@GLIBC_2.17>
     b18:	f9404800 	ldr	x0, [x0, #144]
     b1c:	97ffff89 	bl	940 <__cxa_finalize@plt>
     b20:	97ffffd8 	bl	a80 <deregister_tm_clones>
     b24:	52800020 	mov	w0, #0x1                   	// #1
     b28:	39026260 	strb	w0, [x19, #152]
     b2c:	f9400bf3 	ldr	x19, [sp, #16]
     b30:	a8c27bfd 	ldp	x29, x30, [sp], #32
     b34:	d65f03c0 	ret
     b38:	d503201f 	nop
     b3c:	d503201f 	nop

0000000000000b40 <frame_dummy>:
     b40:	17ffffdc 	b	ab0 <register_tm_clones>

0000000000000b44 <main>:
     b44:	a9bd7bfd 	stp	x29, x30, [sp, #-48]!
     b48:	910003fd 	mov	x29, sp
     b4c:	b9001fe0 	str	w0, [sp, #28]
     b50:	f9000be1 	str	x1, [sp, #16]
     b54:	97ffff7f 	bl	950 <fork@plt>
     b58:	b9002fe0 	str	w0, [sp, #44]
     b5c:	b9402fe0 	ldr	w0, [sp, #44]
     b60:	7100001f 	cmp	w0, #0x0
     b64:	540000a1 	b.ne	b78 <main+0x34>  // b.any
     b68:	f9400be0 	ldr	x0, [sp, #16]
     b6c:	91002000 	add	x0, x0, #0x8
     b70:	94000007 	bl	b8c <child_process>
     b74:	14000003 	b	b80 <main+0x3c>
     b78:	b9402fe0 	ldr	w0, [sp, #44]
     b7c:	9400011a 	bl	fe4 <parent_process>
     b80:	52800000 	mov	w0, #0x0                   	// #0
     b84:	a8c37bfd 	ldp	x29, x30, [sp], #48
     b88:	d65f03c0 	ret

0000000000000b8c <child_process>:
     b8c:	a9be7bfd 	stp	x29, x30, [sp, #-32]!
     b90:	910003fd 	mov	x29, sp
     b94:	f9000fe0 	str	x0, [sp, #24]
     b98:	d2800003 	mov	x3, #0x0                   	// #0
     b9c:	d2800002 	mov	x2, #0x0                   	// #0
     ba0:	52800001 	mov	w1, #0x0                   	// #0
     ba4:	52800000 	mov	w0, #0x0                   	// #0
     ba8:	97ffff82 	bl	9b0 <ptrace@plt>
     bac:	d2800002 	mov	x2, #0x0                   	// #0
     bb0:	b0000000 	adrp	x0, 1000 <parent_process+0x1c>
     bb4:	91050001 	add	x1, x0, #0x140
     bb8:	b0000000 	adrp	x0, 1000 <parent_process+0x1c>
     bbc:	91052000 	add	x0, x0, #0x148
     bc0:	97ffff5c 	bl	930 <execl@plt>
     bc4:	b0000000 	adrp	x0, 1000 <parent_process+0x1c>
     bc8:	91054000 	add	x0, x0, #0x150
     bcc:	97ffff75 	bl	9a0 <puts@plt>
     bd0:	d503201f 	nop
     bd4:	a8c27bfd 	ldp	x29, x30, [sp], #32
     bd8:	d65f03c0 	ret

0000000000000bdc <config_ptrace>:
     bdc:	a9bc7bfd 	stp	x29, x30, [sp, #-64]!
     be0:	910003fd 	mov	x29, sp
     be4:	f9000bf3 	str	x19, [sp, #16]
     be8:	b9002fe0 	str	w0, [sp, #44]
     bec:	9100e3e0 	add	x0, sp, #0x38
     bf0:	52800002 	mov	w2, #0x0                   	// #0
     bf4:	aa0003e1 	mov	x1, x0
     bf8:	b9402fe0 	ldr	w0, [sp, #44]
     bfc:	97ffff85 	bl	a10 <waitpid@plt>
     c00:	b9003fe0 	str	w0, [sp, #60]
     c04:	b9403fe0 	ldr	w0, [sp, #60]
     c08:	3100041f 	cmn	w0, #0x1
     c0c:	540001c1 	b.ne	c44 <config_ptrace+0x68>  // b.any
     c10:	b0000080 	adrp	x0, 11000 <__FRAME_END__+0xfb60>
     c14:	f947e000 	ldr	x0, [x0, #4032]
     c18:	f9400013 	ldr	x19, [x0]
     c1c:	97ffff75 	bl	9f0 <__errno_location@plt>
     c20:	b9400000 	ldr	w0, [x0]
     c24:	97ffff53 	bl	970 <strerror@plt>
     c28:	aa0003e2 	mov	x2, x0
     c2c:	b0000000 	adrp	x0, 1000 <parent_process+0x1c>
     c30:	91058001 	add	x1, x0, #0x160
     c34:	aa1303e0 	mov	x0, x19
     c38:	97ffff7a 	bl	a20 <fprintf@plt>
     c3c:	b9403fe0 	ldr	w0, [sp, #60]
     c40:	97ffff38 	bl	920 <exit@plt>
     c44:	b9403be0 	ldr	w0, [sp, #56]
     c48:	12001800 	and	w0, w0, #0x7f
     c4c:	7100001f 	cmp	w0, #0x0
     c50:	540000c1 	b.ne	c68 <config_ptrace+0x8c>  // b.any
     c54:	b0000000 	adrp	x0, 1000 <parent_process+0x1c>
     c58:	9105e000 	add	x0, x0, #0x178
     c5c:	97ffff51 	bl	9a0 <puts@plt>
     c60:	52800020 	mov	w0, #0x1                   	// #1
     c64:	97ffff2f 	bl	920 <exit@plt>
     c68:	52800023 	mov	w3, #0x1                   	// #1
     c6c:	72a00203 	movk	w3, #0x10, lsl #16
     c70:	d2800002 	mov	x2, #0x0                   	// #0
     c74:	b9402fe1 	ldr	w1, [sp, #44]
     c78:	52884000 	mov	w0, #0x4200                	// #16896
     c7c:	97ffff4d 	bl	9b0 <ptrace@plt>
     c80:	b9003fe0 	str	w0, [sp, #60]
     c84:	b9403fe0 	ldr	w0, [sp, #60]
     c88:	3100041f 	cmn	w0, #0x1
     c8c:	540001c1 	b.ne	cc4 <config_ptrace+0xe8>  // b.any
     c90:	b0000080 	adrp	x0, 11000 <__FRAME_END__+0xfb60>
     c94:	f947e000 	ldr	x0, [x0, #4032]
     c98:	f9400013 	ldr	x19, [x0]
     c9c:	97ffff55 	bl	9f0 <__errno_location@plt>
     ca0:	b9400000 	ldr	w0, [x0]
     ca4:	97ffff33 	bl	970 <strerror@plt>
     ca8:	aa0003e2 	mov	x2, x0
     cac:	b0000000 	adrp	x0, 1000 <parent_process+0x1c>
     cb0:	91062001 	add	x1, x0, #0x188
     cb4:	aa1303e0 	mov	x0, x19
     cb8:	97ffff5a 	bl	a20 <fprintf@plt>
     cbc:	b9403fe0 	ldr	w0, [sp, #60]
     cc0:	97ffff18 	bl	920 <exit@plt>
     cc4:	d2800003 	mov	x3, #0x0                   	// #0
     cc8:	d2800002 	mov	x2, #0x0                   	// #0
     ccc:	b9402fe1 	ldr	w1, [sp, #44]
     cd0:	52800300 	mov	w0, #0x18                  	// #24
     cd4:	97ffff37 	bl	9b0 <ptrace@plt>
     cd8:	b9003fe0 	str	w0, [sp, #60]
     cdc:	b9403fe0 	ldr	w0, [sp, #60]
     ce0:	3100041f 	cmn	w0, #0x1
     ce4:	540001c1 	b.ne	d1c <config_ptrace+0x140>  // b.any
     ce8:	b0000080 	adrp	x0, 11000 <__FRAME_END__+0xfb60>
     cec:	f947e000 	ldr	x0, [x0, #4032]
     cf0:	f9400013 	ldr	x19, [x0]
     cf4:	97ffff3f 	bl	9f0 <__errno_location@plt>
     cf8:	b9400000 	ldr	w0, [x0]
     cfc:	97ffff1d 	bl	970 <strerror@plt>
     d00:	aa0003e2 	mov	x2, x0
     d04:	b0000000 	adrp	x0, 1000 <parent_process+0x1c>
     d08:	91062001 	add	x1, x0, #0x188
     d0c:	aa1303e0 	mov	x0, x19
     d10:	97ffff44 	bl	a20 <fprintf@plt>
     d14:	b9403fe0 	ldr	w0, [sp, #60]
     d18:	97ffff02 	bl	920 <exit@plt>
     d1c:	d503201f 	nop
     d20:	f9400bf3 	ldr	x19, [sp, #16]
     d24:	a8c47bfd 	ldp	x29, x30, [sp], #64
     d28:	d65f03c0 	ret

0000000000000d2c <get_stop_syscall>:
     d2c:	a9ad7bfd 	stp	x29, x30, [sp, #-304]!
     d30:	910003fd 	mov	x29, sp
     d34:	a90153f3 	stp	x19, x20, [sp, #16]
     d38:	b9002fe0 	str	w0, [sp, #44]
     d3c:	910343e0 	add	x0, sp, #0xd0
     d40:	aa0003e3 	mov	x3, x0
     d44:	d2800b02 	mov	x2, #0x58                  	// #88
     d48:	b9402fe1 	ldr	w1, [sp, #44]
     d4c:	528841c0 	mov	w0, #0x420e                	// #16910
     d50:	97ffff18 	bl	9b0 <ptrace@plt>
     d54:	b9012fe0 	str	w0, [sp, #300]
     d58:	b9412fe0 	ldr	w0, [sp, #300]
     d5c:	3100041f 	cmn	w0, #0x1
     d60:	540001e1 	b.ne	d9c <get_stop_syscall+0x70>  // b.any
     d64:	b0000080 	adrp	x0, 11000 <__FRAME_END__+0xfb60>
     d68:	f947e000 	ldr	x0, [x0, #4032]
     d6c:	f9400013 	ldr	x19, [x0]
     d70:	97ffff20 	bl	9f0 <__errno_location@plt>
     d74:	b9400000 	ldr	w0, [x0]
     d78:	97fffefe 	bl	970 <strerror@plt>
     d7c:	aa0003e2 	mov	x2, x0
     d80:	b0000000 	adrp	x0, 1000 <parent_process+0x1c>
     d84:	91068001 	add	x1, x0, #0x1a0
     d88:	aa1303e0 	mov	x0, x19
     d8c:	97ffff25 	bl	a20 <fprintf@plt>
     d90:	97ffff18 	bl	9f0 <__errno_location@plt>
     d94:	b9400000 	ldr	w0, [x0]
     d98:	97fffee2 	bl	920 <exit@plt>
     d9c:	12800000 	mov	w0, #0xffffffff            	// #-1
     da0:	b9012be0 	str	w0, [sp, #296]
     da4:	394343e0 	ldrb	w0, [sp, #208]
     da8:	7100041f 	cmp	w0, #0x1
     dac:	54000661 	b.ne	e78 <get_stop_syscall+0x14c>  // b.any
     db0:	d0000080 	adrp	x0, 12000 <exit@GLIBC_2.17>
     db4:	9102c000 	add	x0, x0, #0xb0
     db8:	52800021 	mov	w1, #0x1                   	// #1
     dbc:	b9000001 	str	w1, [x0]
     dc0:	b940d7e0 	ldr	w0, [sp, #212]
     dc4:	f94077e1 	ldr	x1, [sp, #232]
     dc8:	97ffff02 	bl	9d0 <seccomp_syscall_resolve_num_arch@plt>
     dcc:	aa0003e1 	mov	x1, x0
     dd0:	d0000080 	adrp	x0, 12000 <exit@GLIBC_2.17>
     dd4:	9102e000 	add	x0, x0, #0xb8
     dd8:	f9000001 	str	x1, [x0]
     ddc:	d0000080 	adrp	x0, 12000 <exit@GLIBC_2.17>
     de0:	9102e000 	add	x0, x0, #0xb8
     de4:	f9400000 	ldr	x0, [x0]
     de8:	aa0003e1 	mov	x1, x0
     dec:	b0000000 	adrp	x0, 1000 <parent_process+0x1c>
     df0:	91072000 	add	x0, x0, #0x1c8
     df4:	97fffefb 	bl	9e0 <printf@plt>
     df8:	910103e0 	add	x0, sp, #0x40
     dfc:	aa0003e1 	mov	x1, x0
     e00:	52800000 	mov	w0, #0x0                   	// #0
     e04:	97fffeef 	bl	9c0 <getrusage@plt>
     e08:	3100041f 	cmn	w0, #0x1
     e0c:	540002c1 	b.ne	e64 <get_stop_syscall+0x138>  // b.any
     e10:	b0000080 	adrp	x0, 11000 <__FRAME_END__+0xfb60>
     e14:	f947e000 	ldr	x0, [x0, #4032]
     e18:	f9400013 	ldr	x19, [x0]
     e1c:	d0000080 	adrp	x0, 12000 <exit@GLIBC_2.17>
     e20:	9102e000 	add	x0, x0, #0xb8
     e24:	f9400014 	ldr	x20, [x0]
     e28:	97fffef2 	bl	9f0 <__errno_location@plt>
     e2c:	b9400000 	ldr	w0, [x0]
     e30:	97fffed0 	bl	970 <strerror@plt>
     e34:	aa0003e3 	mov	x3, x0
     e38:	aa1403e2 	mov	x2, x20
     e3c:	b0000000 	adrp	x0, 1000 <parent_process+0x1c>
     e40:	91074001 	add	x1, x0, #0x1d0
     e44:	aa1303e0 	mov	x0, x19
     e48:	97fffef6 	bl	a20 <fprintf@plt>
     e4c:	b0000000 	adrp	x0, 1000 <parent_process+0x1c>
     e50:	91084000 	add	x0, x0, #0x210
     e54:	97fffed3 	bl	9a0 <puts@plt>
     e58:	97fffee6 	bl	9f0 <__errno_location@plt>
     e5c:	b9400000 	ldr	w0, [x0]
     e60:	97fffeb0 	bl	920 <exit@plt>
     e64:	d0000080 	adrp	x0, 12000 <exit@GLIBC_2.17>
     e68:	91028002 	add	x2, x0, #0xa0
     e6c:	a94507e0 	ldp	x0, x1, [sp, #80]
     e70:	a9000440 	stp	x0, x1, [x2]
     e74:	14000058 	b	fd4 <get_stop_syscall+0x2a8>
     e78:	394343e0 	ldrb	w0, [sp, #208]
     e7c:	7100081f 	cmp	w0, #0x2
     e80:	54000aa1 	b.ne	fd4 <get_stop_syscall+0x2a8>  // b.any
     e84:	d0000080 	adrp	x0, 12000 <exit@GLIBC_2.17>
     e88:	9102c000 	add	x0, x0, #0xb0
     e8c:	b9400000 	ldr	w0, [x0]
     e90:	7100001f 	cmp	w0, #0x0
     e94:	54000a00 	b.eq	fd4 <get_stop_syscall+0x2a8>  // b.none
     e98:	910103e0 	add	x0, sp, #0x40
     e9c:	aa0003e1 	mov	x1, x0
     ea0:	52800000 	mov	w0, #0x0                   	// #0
     ea4:	97fffec7 	bl	9c0 <getrusage@plt>
     ea8:	3100041f 	cmn	w0, #0x1
     eac:	540002c1 	b.ne	f04 <get_stop_syscall+0x1d8>  // b.any
     eb0:	b0000080 	adrp	x0, 11000 <__FRAME_END__+0xfb60>
     eb4:	f947e000 	ldr	x0, [x0, #4032]
     eb8:	f9400013 	ldr	x19, [x0]
     ebc:	d0000080 	adrp	x0, 12000 <exit@GLIBC_2.17>
     ec0:	9102e000 	add	x0, x0, #0xb8
     ec4:	f9400014 	ldr	x20, [x0]
     ec8:	97fffeca 	bl	9f0 <__errno_location@plt>
     ecc:	b9400000 	ldr	w0, [x0]
     ed0:	97fffea8 	bl	970 <strerror@plt>
     ed4:	aa0003e3 	mov	x3, x0
     ed8:	aa1403e2 	mov	x2, x20
     edc:	b0000000 	adrp	x0, 1000 <parent_process+0x1c>
     ee0:	91086001 	add	x1, x0, #0x218
     ee4:	aa1303e0 	mov	x0, x19
     ee8:	97fffece 	bl	a20 <fprintf@plt>
     eec:	b0000000 	adrp	x0, 1000 <parent_process+0x1c>
     ef0:	91096000 	add	x0, x0, #0x258
     ef4:	97fffeab 	bl	9a0 <puts@plt>
     ef8:	97fffebe 	bl	9f0 <__errno_location@plt>
     efc:	b9400000 	ldr	w0, [x0]
     f00:	97fffe88 	bl	920 <exit@plt>
     f04:	b0000000 	adrp	x0, 1000 <parent_process+0x1c>
     f08:	91098000 	add	x0, x0, #0x260
     f0c:	97fffea5 	bl	9a0 <puts@plt>
     f10:	f9402be1 	ldr	x1, [sp, #80]
     f14:	d0000080 	adrp	x0, 12000 <exit@GLIBC_2.17>
     f18:	91028000 	add	x0, x0, #0xa0
     f1c:	f9400000 	ldr	x0, [x0]
     f20:	cb000020 	sub	x0, x1, x0
     f24:	f9001be0 	str	x0, [sp, #48]
     f28:	f9402fe1 	ldr	x1, [sp, #88]
     f2c:	d0000080 	adrp	x0, 12000 <exit@GLIBC_2.17>
     f30:	91028000 	add	x0, x0, #0xa0
     f34:	f9400400 	ldr	x0, [x0, #8]
     f38:	cb000020 	sub	x0, x1, x0
     f3c:	f9001fe0 	str	x0, [sp, #56]
     f40:	f9401fe0 	ldr	x0, [sp, #56]
     f44:	f100001f 	cmp	x0, #0x0
     f48:	5400012a 	b.ge	f6c <get_stop_syscall+0x240>  // b.tcont
     f4c:	f9401be0 	ldr	x0, [sp, #48]
     f50:	d1000400 	sub	x0, x0, #0x1
     f54:	f9001be0 	str	x0, [sp, #48]
     f58:	f9401fe1 	ldr	x1, [sp, #56]
     f5c:	d2884800 	mov	x0, #0x4240                	// #16960
     f60:	f2a001e0 	movk	x0, #0xf, lsl #16
     f64:	8b000020 	add	x0, x1, x0
     f68:	f9001fe0 	str	x0, [sp, #56]
     f6c:	d0000080 	adrp	x0, 12000 <exit@GLIBC_2.17>
     f70:	91028000 	add	x0, x0, #0xa0
     f74:	f9400001 	ldr	x1, [x0]
     f78:	d0000080 	adrp	x0, 12000 <exit@GLIBC_2.17>
     f7c:	91028000 	add	x0, x0, #0xa0
     f80:	f9400400 	ldr	x0, [x0, #8]
     f84:	aa0003e2 	mov	x2, x0
     f88:	b0000000 	adrp	x0, 1000 <parent_process+0x1c>
     f8c:	9109a000 	add	x0, x0, #0x268
     f90:	97fffe94 	bl	9e0 <printf@plt>
     f94:	f9402be0 	ldr	x0, [sp, #80]
     f98:	f9402fe1 	ldr	x1, [sp, #88]
     f9c:	aa0103e2 	mov	x2, x1
     fa0:	aa0003e1 	mov	x1, x0
     fa4:	b0000000 	adrp	x0, 1000 <parent_process+0x1c>
     fa8:	910a0000 	add	x0, x0, #0x280
     fac:	97fffe8d 	bl	9e0 <printf@plt>
     fb0:	f9401be0 	ldr	x0, [sp, #48]
     fb4:	f9401fe1 	ldr	x1, [sp, #56]
     fb8:	aa0103e2 	mov	x2, x1
     fbc:	aa0003e1 	mov	x1, x0
     fc0:	b0000000 	adrp	x0, 1000 <parent_process+0x1c>
     fc4:	910a6000 	add	x0, x0, #0x298
     fc8:	97fffe86 	bl	9e0 <printf@plt>
     fcc:	52800140 	mov	w0, #0xa                   	// #10
     fd0:	97fffe8c 	bl	a00 <putchar@plt>
     fd4:	d503201f 	nop
     fd8:	a94153f3 	ldp	x19, x20, [sp, #16]
     fdc:	a8d37bfd 	ldp	x29, x30, [sp], #304
     fe0:	d65f03c0 	ret

0000000000000fe4 <parent_process>:
     fe4:	a9b77bfd 	stp	x29, x30, [sp, #-144]!
     fe8:	910003fd 	mov	x29, sp
     fec:	f9000bf3 	str	x19, [sp, #16]
     ff0:	b9002fe0 	str	w0, [sp, #44]
     ff4:	b9402fe0 	ldr	w0, [sp, #44]
     ff8:	97fffef9 	bl	bdc <config_ptrace>
     ffc:	910233e0 	add	x0, sp, #0x8c
    1000:	52800002 	mov	w2, #0x0                   	// #0
    1004:	aa0003e1 	mov	x1, x0
    1008:	b9402fe0 	ldr	w0, [sp, #44]
    100c:	97fffe81 	bl	a10 <waitpid@plt>
    1010:	b9408fe0 	ldr	w0, [sp, #140]
    1014:	12001800 	and	w0, w0, #0x7f
    1018:	7100001f 	cmp	w0, #0x0
    101c:	540000a1 	b.ne	1030 <parent_process+0x4c>  // b.any
    1020:	90000000 	adrp	x0, 1000 <parent_process+0x1c>
    1024:	9105e000 	add	x0, x0, #0x178
    1028:	97fffe5e 	bl	9a0 <puts@plt>
    102c:	1400001a 	b	1094 <parent_process+0xb0>
    1030:	b9408fe0 	ldr	w0, [sp, #140]
    1034:	12001c00 	and	w0, w0, #0xff
    1038:	7101fc1f 	cmp	w0, #0x7f
    103c:	54000061 	b.ne	1048 <parent_process+0x64>  // b.any
    1040:	b9402fe0 	ldr	w0, [sp, #44]
    1044:	97ffff3a 	bl	d2c <get_stop_syscall>
    1048:	d2800003 	mov	x3, #0x0                   	// #0
    104c:	d2800002 	mov	x2, #0x0                   	// #0
    1050:	b9402fe1 	ldr	w1, [sp, #44]
    1054:	52800300 	mov	w0, #0x18                  	// #24
    1058:	97fffe56 	bl	9b0 <ptrace@plt>
    105c:	b100041f 	cmn	x0, #0x1
    1060:	54fffce1 	b.ne	ffc <parent_process+0x18>  // b.any
    1064:	90000080 	adrp	x0, 11000 <__FRAME_END__+0xfb60>
    1068:	f947e000 	ldr	x0, [x0, #4032]
    106c:	f9400013 	ldr	x19, [x0]
    1070:	97fffe60 	bl	9f0 <__errno_location@plt>
    1074:	b9400000 	ldr	w0, [x0]
    1078:	97fffe3e 	bl	970 <strerror@plt>
    107c:	aa0003e2 	mov	x2, x0
    1080:	90000000 	adrp	x0, 1000 <parent_process+0x1c>
    1084:	910ac001 	add	x1, x0, #0x2b0
    1088:	aa1303e0 	mov	x0, x19
    108c:	97fffe65 	bl	a20 <fprintf@plt>
    1090:	17ffffdb 	b	ffc <parent_process+0x18>
    1094:	f9400bf3 	ldr	x19, [sp, #16]
    1098:	a8c97bfd 	ldp	x29, x30, [sp], #144
    109c:	d65f03c0 	ret

00000000000010a0 <__libc_csu_init>:
    10a0:	a9bc7bfd 	stp	x29, x30, [sp, #-64]!
    10a4:	910003fd 	mov	x29, sp
    10a8:	a90153f3 	stp	x19, x20, [sp, #16]
    10ac:	90000094 	adrp	x20, 11000 <__FRAME_END__+0xfb60>
    10b0:	9136a294 	add	x20, x20, #0xda8
    10b4:	a9025bf5 	stp	x21, x22, [sp, #32]
    10b8:	90000095 	adrp	x21, 11000 <__FRAME_END__+0xfb60>
    10bc:	913682b5 	add	x21, x21, #0xda0
    10c0:	cb150294 	sub	x20, x20, x21
    10c4:	2a0003f6 	mov	w22, w0
    10c8:	a90363f7 	stp	x23, x24, [sp, #48]
    10cc:	aa0103f7 	mov	x23, x1
    10d0:	aa0203f8 	mov	x24, x2
    10d4:	9343fe94 	asr	x20, x20, #3
    10d8:	97fffe02 	bl	8e0 <_init>
    10dc:	b4000174 	cbz	x20, 1108 <__libc_csu_init+0x68>
    10e0:	d2800013 	mov	x19, #0x0                   	// #0
    10e4:	d503201f 	nop
    10e8:	f8737aa3 	ldr	x3, [x21, x19, lsl #3]
    10ec:	aa1803e2 	mov	x2, x24
    10f0:	91000673 	add	x19, x19, #0x1
    10f4:	aa1703e1 	mov	x1, x23
    10f8:	2a1603e0 	mov	w0, w22
    10fc:	d63f0060 	blr	x3
    1100:	eb13029f 	cmp	x20, x19
    1104:	54ffff21 	b.ne	10e8 <__libc_csu_init+0x48>  // b.any
    1108:	a94153f3 	ldp	x19, x20, [sp, #16]
    110c:	a9425bf5 	ldp	x21, x22, [sp, #32]
    1110:	a94363f7 	ldp	x23, x24, [sp, #48]
    1114:	a8c47bfd 	ldp	x29, x30, [sp], #64
    1118:	d65f03c0 	ret
    111c:	d503201f 	nop

0000000000001120 <__libc_csu_fini>:
    1120:	d65f03c0 	ret

Disassembly of section .fini:

0000000000001124 <_fini>:
    1124:	a9bf7bfd 	stp	x29, x30, [sp, #-16]!
    1128:	910003fd 	mov	x29, sp
    112c:	a8c17bfd 	ldp	x29, x30, [sp], #16
    1130:	d65f03c0 	ret
